
thread_safe_stack_clang.o:	file format mach-o arm64

Disassembly of section __TEXT,__text:

000000010000190c <__Z7push_lli>:
10000190c: ff 83 00 d1 	sub	sp, sp, #32
100001910: fd 7b 01 a9 	stp	x29, x30, [sp, #16]
100001914: fd 43 00 91 	add	x29, sp, #16
100001918: a0 c3 1f b8 	stur	w0, [x29, #-4]
10000191c: 20 00 00 f0 	adrp	x0, 0x100008000 <__Z7push_lli+0x2c>
100001920: 00 00 00 91 	add	x0, x0, #0
100001924: b6 08 00 94 	bl	0x100003bfc <_strlen+0x100003bfc>
100001928: 00 02 80 d2 	mov	x0, #16
10000192c: d2 08 00 94 	bl	0x100003c74 <_strlen+0x100003c74>
100001930: 1f 00 00 f9 	str	xzr, [x0]
100001934: 1f 04 00 f9 	str	xzr, [x0, #8]
100001938: e0 03 00 f9 	str	x0, [sp]
10000193c: a8 c3 5f b8 	ldur	w8, [x29, #-4]
100001940: e9 03 40 f9 	ldr	x9, [sp]
100001944: 28 01 00 b9 	str	w8, [x9]
100001948: e8 03 40 f9 	ldr	x8, [sp]
10000194c: 1f 05 00 f9 	str	xzr, [x8, #8]
100001950: 28 00 00 f0 	adrp	x8, 0x100008000 <__Z7push_lli+0x60>
100001954: 08 21 40 f9 	ldr	x8, [x8, #64]
100001958: c8 00 00 b5 	cbnz	x8, 0x100001970 <__Z7push_lli+0x64>
10000195c: 01 00 00 14 	b	0x100001960 <__Z7push_lli+0x54>
100001960: e8 03 40 f9 	ldr	x8, [sp]
100001964: 29 00 00 f0 	adrp	x9, 0x100008000 <__Z7push_lli+0x74>
100001968: 28 21 00 f9 	str	x8, [x9, #64]
10000196c: 08 00 00 14 	b	0x10000198c <__Z7push_lli+0x80>
100001970: 29 00 00 f0 	adrp	x9, 0x100008000 <__Z7push_lli+0x80>
100001974: 28 21 40 f9 	ldr	x8, [x9, #64]
100001978: ea 03 40 f9 	ldr	x10, [sp]
10000197c: 48 05 00 f9 	str	x8, [x10, #8]
100001980: e8 03 40 f9 	ldr	x8, [sp]
100001984: 28 21 00 f9 	str	x8, [x9, #64]
100001988: 01 00 00 14 	b	0x10000198c <__Z7push_lli+0x80>
10000198c: 29 00 00 f0 	adrp	x9, 0x100008000 <__Z7push_lli+0x9c>
100001990: 28 49 40 b9 	ldr	w8, [x9, #72]
100001994: 08 05 00 11 	add	w8, w8, #1
100001998: 28 49 00 b9 	str	w8, [x9, #72]
10000199c: 20 00 00 f0 	adrp	x0, 0x100008000 <__Z6pop_llv+0x4>
1000019a0: 00 00 00 91 	add	x0, x0, #0
1000019a4: 99 08 00 94 	bl	0x100003c08 <_strlen+0x100003c08>
1000019a8: fd 7b 41 a9 	ldp	x29, x30, [sp, #16]
1000019ac: ff 83 00 91 	add	sp, sp, #32
1000019b0: c0 03 5f d6 	ret

00000001000019b4 <__Z6pop_llv>:
1000019b4: ff c3 00 d1 	sub	sp, sp, #48
1000019b8: fd 7b 02 a9 	stp	x29, x30, [sp, #32]
1000019bc: fd 83 00 91 	add	x29, sp, #32
1000019c0: 20 00 00 f0 	adrp	x0, 0x100008000 <__Z6pop_llv+0x28>
1000019c4: 00 00 00 91 	add	x0, x0, #0
1000019c8: 8d 08 00 94 	bl	0x100003bfc <_strlen+0x100003bfc>
1000019cc: 28 00 00 f0 	adrp	x8, 0x100008000 <__Z6pop_llv+0x34>
1000019d0: 08 21 40 f9 	ldr	x8, [x8, #64]
1000019d4: 68 02 00 b4 	cbz	x8, 0x100001a20 <__Z6pop_llv+0x6c>
1000019d8: 01 00 00 14 	b	0x1000019dc <__Z6pop_llv+0x28>
1000019dc: 28 00 00 f0 	adrp	x8, 0x100008000 <__Z6pop_llv+0x44>
1000019e0: 09 21 40 f9 	ldr	x9, [x8, #64]
1000019e4: 29 05 40 f9 	ldr	x9, [x9, #8]
1000019e8: a9 83 1f f8 	stur	x9, [x29, #-8]
1000019ec: 08 21 40 f9 	ldr	x8, [x8, #64]
1000019f0: e8 0b 00 f9 	str	x8, [sp, #16]
1000019f4: e8 0b 40 f9 	ldr	x8, [sp, #16]
1000019f8: e8 07 00 f9 	str	x8, [sp, #8]
1000019fc: a8 00 00 b4 	cbz	x8, 0x100001a10 <__Z6pop_llv+0x5c>
100001a00: 01 00 00 14 	b	0x100001a04 <__Z6pop_llv+0x50>
100001a04: e0 07 40 f9 	ldr	x0, [sp, #8]
100001a08: 98 08 00 94 	bl	0x100003c68 <_strlen+0x100003c68>
100001a0c: 01 00 00 14 	b	0x100001a10 <__Z6pop_llv+0x5c>
100001a10: a8 83 5f f8 	ldur	x8, [x29, #-8]
100001a14: 29 00 00 f0 	adrp	x9, 0x100008000 <__Z6pop_llv+0x7c>
100001a18: 28 21 00 f9 	str	x8, [x9, #64]
100001a1c: 01 00 00 14 	b	0x100001a20 <__Z6pop_llv+0x6c>
100001a20: 29 00 00 f0 	adrp	x9, 0x100008000 <__Z6pop_llv+0x88>
100001a24: 28 49 40 b9 	ldr	w8, [x9, #72]
100001a28: 08 05 00 71 	subs	w8, w8, #1
100001a2c: 28 49 00 b9 	str	w8, [x9, #72]
100001a30: 20 00 00 f0 	adrp	x0, 0x100008000 <__Z11top_peek_llv+0x4>
100001a34: 00 00 00 91 	add	x0, x0, #0
100001a38: 74 08 00 94 	bl	0x100003c08 <_strlen+0x100003c08>
100001a3c: fd 7b 42 a9 	ldp	x29, x30, [sp, #32]
100001a40: ff c3 00 91 	add	sp, sp, #48
100001a44: c0 03 5f d6 	ret

0000000100001a48 <__Z11top_peek_llv>:
100001a48: 28 00 00 f0 	adrp	x8, 0x100008000 <__Z10isEmpty_llv+0xc>
100001a4c: 08 21 40 f9 	ldr	x8, [x8, #64]
100001a50: 00 01 40 b9 	ldr	w0, [x8]
100001a54: c0 03 5f d6 	ret

0000000100001a58 <__Z10isEmpty_llv>:
100001a58: ff 43 00 d1 	sub	sp, sp, #16
100001a5c: 28 00 00 f0 	adrp	x8, 0x100008000 <__Z10isEmpty_llv+0x20>
100001a60: 08 21 40 f9 	ldr	x8, [x8, #64]
100001a64: e8 00 00 b5 	cbnz	x8, 0x100001a80 <__Z10isEmpty_llv+0x28>
100001a68: 01 00 00 14 	b	0x100001a6c <__Z10isEmpty_llv+0x14>
100001a6c: 28 00 80 52 	mov	w8, #1
100001a70: 08 01 00 12 	and	w8, w8, #0x1
100001a74: 08 01 00 12 	and	w8, w8, #0x1
100001a78: e8 3f 00 39 	strb	w8, [sp, #15]
100001a7c: 06 00 00 14 	b	0x100001a94 <__Z10isEmpty_llv+0x3c>
100001a80: 08 00 80 52 	mov	w8, #0
100001a84: 08 01 00 12 	and	w8, w8, #0x1
100001a88: 08 01 00 12 	and	w8, w8, #0x1
100001a8c: e8 3f 00 39 	strb	w8, [sp, #15]
100001a90: 01 00 00 14 	b	0x100001a94 <__Z10isEmpty_llv+0x3c>
100001a94: e8 3f 40 39 	ldrb	w8, [sp, #15]
100001a98: 00 01 00 12 	and	w0, w8, #0x1
100001a9c: ff 43 00 91 	add	sp, sp, #16
100001aa0: c0 03 5f d6 	ret

0000000100001aa4 <__Z7printllP4Node>:
100001aa4: ff 83 00 d1 	sub	sp, sp, #32
100001aa8: fd 7b 01 a9 	stp	x29, x30, [sp, #16]
100001aac: fd 43 00 91 	add	x29, sp, #16
100001ab0: e0 07 00 f9 	str	x0, [sp, #8]
100001ab4: 01 00 00 14 	b	0x100001ab8 <__Z7printllP4Node+0x14>
100001ab8: e8 07 40 f9 	ldr	x8, [sp, #8]
100001abc: c8 01 00 b4 	cbz	x8, 0x100001af4 <__Z7printllP4Node+0x50>
100001ac0: 01 00 00 14 	b	0x100001ac4 <__Z7printllP4Node+0x20>
100001ac4: e8 07 40 f9 	ldr	x8, [sp, #8]
100001ac8: 01 01 40 b9 	ldr	w1, [x8]
100001acc: 00 00 00 f0 	adrp	x0, 0x100004000 <__Z7printllP4Node+0x34>
100001ad0: 00 44 40 f9 	ldr	x0, [x0, #136]
100001ad4: 35 08 00 94 	bl	0x100003ba8 <_strlen+0x100003ba8>
100001ad8: 01 00 00 d0 	adrp	x1, 0x100003000 <__Z7printllP4Node+0x3c>
100001adc: 21 40 37 91 	add	x1, x1, #3536
100001ae0: 5c 08 00 94 	bl	0x100003c50 <_strlen+0x100003c50>
100001ae4: e8 07 40 f9 	ldr	x8, [sp, #8]
100001ae8: 08 05 40 f9 	ldr	x8, [x8, #8]
100001aec: e8 07 00 f9 	str	x8, [sp, #8]
100001af0: f2 ff ff 17 	b	0x100001ab8 <__Z7printllP4Node+0x14>
100001af4: 00 00 00 f0 	adrp	x0, 0x100004000 <__Z7printllP4Node+0x5c>
100001af8: 00 44 40 f9 	ldr	x0, [x0, #136]
100001afc: 01 00 00 d0 	adrp	x1, 0x100003000 <__Z7printllP4Node+0x60>
100001b00: 21 4c 37 91 	add	x1, x1, #3539
100001b04: 53 08 00 94 	bl	0x100003c50 <_strlen+0x100003c50>
100001b08: fd 7b 41 a9 	ldp	x29, x30, [sp, #16]
100001b0c: ff 83 00 91 	add	sp, sp, #32
100001b10: c0 03 5f d6 	ret

0000000100001b14 <__ZNSt3__1lsINS_11char_traitsIcEEEERNS_13basic_ostreamIcT_EES6_PKc>:
100001b14: ff c3 00 d1 	sub	sp, sp, #48
100001b18: fd 7b 02 a9 	stp	x29, x30, [sp, #32]
100001b1c: fd 83 00 91 	add	x29, sp, #32
100001b20: a0 83 1f f8 	stur	x0, [x29, #-8]
100001b24: e1 0b 00 f9 	str	x1, [sp, #16]
100001b28: a8 83 5f f8 	ldur	x8, [x29, #-8]
100001b2c: e8 07 00 f9 	str	x8, [sp, #8]
100001b30: e8 0b 40 f9 	ldr	x8, [sp, #16]
100001b34: e8 03 00 f9 	str	x8, [sp]
100001b38: e0 0b 40 f9 	ldr	x0, [sp, #16]
100001b3c: 0c 08 00 94 	bl	0x100003b6c <_strlen+0x100003b6c>
100001b40: e1 03 40 f9 	ldr	x1, [sp]
100001b44: e2 03 00 aa 	mov	x2, x0
100001b48: e0 07 40 f9 	ldr	x0, [sp, #8]
100001b4c: 29 08 00 94 	bl	0x100003bf0 <_strlen+0x100003bf0>
100001b50: fd 7b 42 a9 	ldp	x29, x30, [sp, #32]
100001b54: ff c3 00 91 	add	sp, sp, #48
100001b58: c0 03 5f d6 	ret

0000000100001b5c <__Z13push_pop_funci>:
100001b5c: ff 83 00 d1 	sub	sp, sp, #32
100001b60: fd 7b 01 a9 	stp	x29, x30, [sp, #16]
100001b64: fd 43 00 91 	add	x29, sp, #16
100001b68: a0 c3 1f b8 	stur	w0, [x29, #-4]
100001b6c: ff 0b 00 b9 	str	wzr, [sp, #8]
100001b70: 01 00 00 14 	b	0x100001b74 <__Z13push_pop_funci+0x18>
100001b74: e8 0b 40 b9 	ldr	w8, [sp, #8]
100001b78: 08 a1 0f 71 	subs	w8, w8, #1000
100001b7c: 8a 02 00 54 	b.ge	0x100001bcc <__Z13push_pop_funci+0x70>
100001b80: 01 00 00 14 	b	0x100001b84 <__Z13push_pop_funci+0x28>
100001b84: e8 0b 40 b9 	ldr	w8, [sp, #8]
100001b88: a9 c3 5f b8 	ldur	w9, [x29, #-4]
100001b8c: 00 7d 09 1b 	mul	w0, w8, w9
100001b90: 5f ff ff 97 	bl	0x10000190c <__Z7push_lli>
100001b94: e8 0b 40 b9 	ldr	w8, [sp, #8]
100001b98: 4a 00 80 52 	mov	w10, #2
100001b9c: 09 0d ca 1a 	sdiv	w9, w8, w10
100001ba0: 29 7d 0a 1b 	mul	w9, w9, w10
100001ba4: 08 01 09 6b 	subs	w8, w8, w9
100001ba8: 88 00 00 35 	cbnz	w8, 0x100001bb8 <__Z13push_pop_funci+0x5c>
100001bac: 01 00 00 14 	b	0x100001bb0 <__Z13push_pop_funci+0x54>
100001bb0: 81 ff ff 97 	bl	0x1000019b4 <__Z6pop_llv>
100001bb4: 01 00 00 14 	b	0x100001bb8 <__Z13push_pop_funci+0x5c>
100001bb8: 01 00 00 14 	b	0x100001bbc <__Z13push_pop_funci+0x60>
100001bbc: e8 0b 40 b9 	ldr	w8, [sp, #8]
100001bc0: 08 05 00 11 	add	w8, w8, #1
100001bc4: e8 0b 00 b9 	str	w8, [sp, #8]
100001bc8: eb ff ff 17 	b	0x100001b74 <__Z13push_pop_funci+0x18>
100001bcc: fd 7b 41 a9 	ldp	x29, x30, [sp, #16]
100001bd0: ff 83 00 91 	add	sp, sp, #32
100001bd4: c0 03 5f d6 	ret

0000000100001bd8 <_main>:
100001bd8: fd 7b bf a9 	stp	x29, x30, [sp, #-16]!
100001bdc: fd 03 00 91 	mov	x29, sp
100001be0: ff c3 02 d1 	sub	sp, sp, #176
100001be4: 08 00 00 f0 	adrp	x8, 0x100004000 <_main+0x18>
100001be8: 08 95 40 f9 	ldr	x8, [x8, #296]
100001bec: 08 01 40 f9 	ldr	x8, [x8]
100001bf0: a8 83 1f f8 	stur	x8, [x29, #-8]
100001bf4: bf 43 1f b8 	stur	wzr, [x29, #-12]
100001bf8: 08 04 80 52 	mov	w8, #32
100001bfc: a8 03 1f b8 	stur	w8, [x29, #-16]
100001c00: a8 03 5f b8 	ldur	w8, [x29, #-16]
100001c04: a8 83 1a f8 	stur	x8, [x29, #-88]
100001c08: e9 03 00 91 	mov	x9, sp
100001c0c: a9 83 1e f8 	stur	x9, [x29, #-24]
100001c10: 09 f1 7d d3 	lsl	x9, x8, #3
100001c14: 29 3d 00 91 	add	x9, x9, #15
100001c18: 29 ed 7c 92 	and	x9, x9, #0xfffffffffffffff0
100001c1c: a9 03 1b f8 	stur	x9, [x29, #-80]
100001c20: 10 00 00 f0 	adrp	x16, 0x100004000 <_main+0x54>
100001c24: 10 7e 40 f9 	ldr	x16, [x16, #248]
100001c28: 00 02 3f d6 	blr	x16
100001c2c: aa 03 5b f8 	ldur	x10, [x29, #-80]
100001c30: e9 03 00 91 	mov	x9, sp
100001c34: 29 01 0a eb 	subs	x9, x9, x10
100001c38: 3f 01 00 91 	mov	sp, x9
100001c3c: a9 83 1b f8 	stur	x9, [x29, #-72]
100001c40: a8 03 1e f8 	stur	x8, [x29, #-32]
100001c44: 48 02 00 b4 	cbz	x8, 0x100001c8c <_main+0xb4>
100001c48: 01 00 00 14 	b	0x100001c4c <_main+0x74>
100001c4c: a8 83 5b f8 	ldur	x8, [x29, #-72]
100001c50: a9 83 5a f8 	ldur	x9, [x29, #-88]
100001c54: 09 0d 09 8b 	add	x9, x8, x9, lsl #3
100001c58: a9 83 19 f8 	stur	x9, [x29, #-104]
100001c5c: a8 03 1a f8 	stur	x8, [x29, #-96]
100001c60: 01 00 00 14 	b	0x100001c64 <_main+0x8c>
100001c64: a0 03 5a f8 	ldur	x0, [x29, #-96]
100001c68: a0 03 19 f8 	stur	x0, [x29, #-112]
100001c6c: 7d 00 00 94 	bl	0x100001e60 <__ZNSt3__16threadC1Ev>
100001c70: a8 03 59 f8 	ldur	x8, [x29, #-112]
100001c74: a9 83 59 f8 	ldur	x9, [x29, #-104]
100001c78: 08 21 00 91 	add	x8, x8, #8
100001c7c: 09 01 09 eb 	subs	x9, x8, x9
100001c80: a8 03 1a f8 	stur	x8, [x29, #-96]
100001c84: 01 ff ff 54 	b.ne	0x100001c64 <_main+0x8c>
100001c88: 01 00 00 14 	b	0x100001c8c <_main+0xb4>
100001c8c: bf c3 1d b8 	stur	wzr, [x29, #-36]
100001c90: 01 00 00 14 	b	0x100001c94 <_main+0xbc>
100001c94: a8 c3 5d b8 	ldur	w8, [x29, #-36]
100001c98: a9 03 5f b8 	ldur	w9, [x29, #-16]
100001c9c: 08 01 09 6b 	subs	w8, w8, w9
100001ca0: ea 03 00 54 	b.ge	0x100001d1c <_main+0x144>
100001ca4: 01 00 00 14 	b	0x100001ca8 <_main+0xd0>
100001ca8: a0 c3 00 d1 	sub	x0, x29, #48
100001cac: 01 00 00 90 	adrp	x1, 0x100001000 <_main+0xd4>
100001cb0: 21 70 2d 91 	add	x1, x1, #2908
100001cb4: a2 93 00 d1 	sub	x2, x29, #36
100001cb8: 75 00 00 94 	bl	0x100001e8c <__ZNSt3__16threadC1IRFviEJRiEvEEOT_DpOT0_>
100001cbc: 01 00 00 14 	b	0x100001cc0 <_main+0xe8>
100001cc0: a8 83 5b f8 	ldur	x8, [x29, #-72]
100001cc4: a9 c3 9d b8 	ldursw	x9, [x29, #-36]
100001cc8: 00 0d 09 8b 	add	x0, x8, x9, lsl #3
100001ccc: a1 c3 00 d1 	sub	x1, x29, #48
100001cd0: a1 83 18 f8 	stur	x1, [x29, #-120]
100001cd4: 7d 00 00 94 	bl	0x100001ec8 <__ZNSt3__16threadaSEOS0_>
100001cd8: a0 83 58 f8 	ldur	x0, [x29, #-120]
100001cdc: d4 07 00 94 	bl	0x100003c2c <_strlen+0x100003c2c>
100001ce0: 01 00 00 14 	b	0x100001ce4 <_main+0x10c>
100001ce4: a8 c3 5d b8 	ldur	w8, [x29, #-36]
100001ce8: 08 05 00 11 	add	w8, w8, #1
100001cec: a8 c3 1d b8 	stur	w8, [x29, #-36]
100001cf0: e9 ff ff 17 	b	0x100001c94 <_main+0xbc>
100001cf4: a9 83 5b f8 	ldur	x9, [x29, #-72]
100001cf8: a8 83 5a f8 	ldur	x8, [x29, #-88]
100001cfc: ea 03 01 aa 	mov	x10, x1
100001d00: a0 83 1c f8 	stur	x0, [x29, #-56]
100001d04: aa 43 1c b8 	stur	w10, [x29, #-60]
100001d08: 28 0d 08 8b 	add	x8, x9, x8, lsl #3
100001d0c: 29 01 08 eb 	subs	x9, x9, x8
100001d10: a8 03 18 f8 	stur	x8, [x29, #-128]
100001d14: 00 0a 00 54 	b.eq	0x100001e54 <_main+0x27c>
100001d18: 45 00 00 14 	b	0x100001e2c <_main+0x254>
100001d1c: bf 03 1c b8 	stur	wzr, [x29, #-64]
100001d20: 01 00 00 14 	b	0x100001d24 <_main+0x14c>
100001d24: a8 03 5c b8 	ldur	w8, [x29, #-64]
100001d28: a9 03 5f b8 	ldur	w9, [x29, #-16]
100001d2c: 08 01 09 6b 	subs	w8, w8, w9
100001d30: 8a 01 00 54 	b.ge	0x100001d60 <_main+0x188>
100001d34: 01 00 00 14 	b	0x100001d38 <_main+0x160>
100001d38: a8 83 5b f8 	ldur	x8, [x29, #-72]
100001d3c: a9 03 9c b8 	ldursw	x9, [x29, #-64]
100001d40: 00 0d 09 8b 	add	x0, x8, x9, lsl #3
100001d44: b7 07 00 94 	bl	0x100003c20 <_strlen+0x100003c20>
100001d48: 01 00 00 14 	b	0x100001d4c <_main+0x174>
100001d4c: 01 00 00 14 	b	0x100001d50 <_main+0x178>
100001d50: a8 03 5c b8 	ldur	w8, [x29, #-64]
100001d54: 08 05 00 11 	add	w8, w8, #1
100001d58: a8 03 1c b8 	stur	w8, [x29, #-64]
100001d5c: f2 ff ff 17 	b	0x100001d24 <_main+0x14c>
100001d60: 00 00 00 f0 	adrp	x0, 0x100004000 <_main+0x194>
100001d64: 00 44 40 f9 	ldr	x0, [x0, #136]
100001d68: 01 00 00 d0 	adrp	x1, 0x100003000 <_main+0x198>
100001d6c: 21 54 37 91 	add	x1, x1, #3541
100001d70: b8 07 00 94 	bl	0x100003c50 <_strlen+0x100003c50>
100001d74: a0 83 17 f8 	stur	x0, [x29, #-136]
100001d78: 01 00 00 14 	b	0x100001d7c <_main+0x1a4>
100001d7c: a0 83 57 f8 	ldur	x0, [x29, #-136]
100001d80: 28 00 00 f0 	adrp	x8, 0x100008000 <_main+0x1c4>
100001d84: 01 49 40 b9 	ldr	w1, [x8, #72]
100001d88: 88 07 00 94 	bl	0x100003ba8 <_strlen+0x100003ba8>
100001d8c: a0 03 17 f8 	stur	x0, [x29, #-144]
100001d90: 01 00 00 14 	b	0x100001d94 <_main+0x1bc>
100001d94: a0 03 57 f8 	ldur	x0, [x29, #-144]
100001d98: 01 00 00 d0 	adrp	x1, 0x100003000 <_main+0x1c8>
100001d9c: 21 4c 37 91 	add	x1, x1, #3539
100001da0: ac 07 00 94 	bl	0x100003c50 <_strlen+0x100003c50>
100001da4: 01 00 00 14 	b	0x100001da8 <_main+0x1d0>
100001da8: a9 83 5b f8 	ldur	x9, [x29, #-72]
100001dac: a8 83 5a f8 	ldur	x8, [x29, #-88]
100001db0: 28 0d 08 8b 	add	x8, x9, x8, lsl #3
100001db4: 29 01 08 eb 	subs	x9, x9, x8
100001db8: a8 83 16 f8 	stur	x8, [x29, #-152]
100001dbc: 80 01 00 54 	b.eq	0x100001dec <_main+0x214>
100001dc0: 01 00 00 14 	b	0x100001dc4 <_main+0x1ec>
100001dc4: a8 83 56 f8 	ldur	x8, [x29, #-152]
100001dc8: 00 21 00 f1 	subs	x0, x8, #8
100001dcc: a0 03 16 f8 	stur	x0, [x29, #-160]
100001dd0: 97 07 00 94 	bl	0x100003c2c <_strlen+0x100003c2c>
100001dd4: a9 83 5b f8 	ldur	x9, [x29, #-72]
100001dd8: a8 03 56 f8 	ldur	x8, [x29, #-160]
100001ddc: 09 01 09 eb 	subs	x9, x8, x9
100001de0: a8 83 16 f8 	stur	x8, [x29, #-152]
100001de4: 01 ff ff 54 	b.ne	0x100001dc4 <_main+0x1ec>
100001de8: 01 00 00 14 	b	0x100001dec <_main+0x214>
100001dec: a8 83 5e f8 	ldur	x8, [x29, #-24]
100001df0: 1f 01 00 91 	mov	sp, x8
100001df4: a8 43 5f b8 	ldur	w8, [x29, #-12]
100001df8: a8 c3 15 b8 	stur	w8, [x29, #-164]
100001dfc: a9 83 5f f8 	ldur	x9, [x29, #-8]
100001e00: 08 00 00 f0 	adrp	x8, 0x100004000 <_main+0x234>
100001e04: 08 95 40 f9 	ldr	x8, [x8, #296]
100001e08: 08 01 40 f9 	ldr	x8, [x8]
100001e0c: 08 01 09 eb 	subs	x8, x8, x9
100001e10: 60 00 00 54 	b.eq	0x100001e1c <_main+0x244>
100001e14: 01 00 00 14 	b	0x100001e18 <_main+0x240>
100001e18: a3 07 00 94 	bl	0x100003ca4 <_strlen+0x100003ca4>
100001e1c: a0 c3 55 b8 	ldur	w0, [x29, #-164]
100001e20: bf 03 00 91 	mov	sp, x29
100001e24: fd 7b c1 a8 	ldp	x29, x30, [sp], #16
100001e28: c0 03 5f d6 	ret
100001e2c: a8 03 58 f8 	ldur	x8, [x29, #-128]
100001e30: 00 21 00 f1 	subs	x0, x8, #8
100001e34: a0 03 15 f8 	stur	x0, [x29, #-176]
100001e38: 7d 07 00 94 	bl	0x100003c2c <_strlen+0x100003c2c>
100001e3c: a9 83 5b f8 	ldur	x9, [x29, #-72]
100001e40: a8 03 55 f8 	ldur	x8, [x29, #-176]
100001e44: 09 01 09 eb 	subs	x9, x8, x9
100001e48: a8 03 18 f8 	stur	x8, [x29, #-128]
100001e4c: 01 ff ff 54 	b.ne	0x100001e2c <_main+0x254>
100001e50: 01 00 00 14 	b	0x100001e54 <_main+0x27c>
100001e54: 01 00 00 14 	b	0x100001e58 <_main+0x280>
100001e58: a0 83 5c f8 	ldur	x0, [x29, #-56]
100001e5c: 35 07 00 94 	bl	0x100003b30 <_strlen+0x100003b30>

0000000100001e60 <__ZNSt3__16threadC1Ev>:
100001e60: ff 83 00 d1 	sub	sp, sp, #32
100001e64: fd 7b 01 a9 	stp	x29, x30, [sp, #16]
100001e68: fd 43 00 91 	add	x29, sp, #16
100001e6c: e0 07 00 f9 	str	x0, [sp, #8]
100001e70: e0 07 40 f9 	ldr	x0, [sp, #8]
100001e74: e0 03 00 f9 	str	x0, [sp]
100001e78: 2c 00 00 94 	bl	0x100001f28 <__ZNSt3__16threadC2Ev>
100001e7c: e0 03 40 f9 	ldr	x0, [sp]
100001e80: fd 7b 41 a9 	ldp	x29, x30, [sp, #16]
100001e84: ff 83 00 91 	add	sp, sp, #32
100001e88: c0 03 5f d6 	ret

0000000100001e8c <__ZNSt3__16threadC1IRFviEJRiEvEEOT_DpOT0_>:
100001e8c: ff c3 00 d1 	sub	sp, sp, #48
100001e90: fd 7b 02 a9 	stp	x29, x30, [sp, #32]
100001e94: fd 83 00 91 	add	x29, sp, #32
100001e98: a0 83 1f f8 	stur	x0, [x29, #-8]
100001e9c: e1 0b 00 f9 	str	x1, [sp, #16]
100001ea0: e2 07 00 f9 	str	x2, [sp, #8]
100001ea4: a0 83 5f f8 	ldur	x0, [x29, #-8]
100001ea8: e0 03 00 f9 	str	x0, [sp]
100001eac: e1 0b 40 f9 	ldr	x1, [sp, #16]
100001eb0: e2 07 40 f9 	ldr	x2, [sp, #8]
100001eb4: e9 02 00 94 	bl	0x100002a58 <__ZNSt3__16threadC2IRFviEJRiEvEEOT_DpOT0_>
100001eb8: e0 03 40 f9 	ldr	x0, [sp]
100001ebc: fd 7b 42 a9 	ldp	x29, x30, [sp, #32]
100001ec0: ff c3 00 91 	add	sp, sp, #48
100001ec4: c0 03 5f d6 	ret

0000000100001ec8 <__ZNSt3__16threadaSEOS0_>:
100001ec8: ff c3 00 d1 	sub	sp, sp, #48
100001ecc: fd 7b 02 a9 	stp	x29, x30, [sp, #32]
100001ed0: fd 83 00 91 	add	x29, sp, #32
100001ed4: a0 83 1f f8 	stur	x0, [x29, #-8]
100001ed8: e1 0b 00 f9 	str	x1, [sp, #16]
100001edc: a0 83 5f f8 	ldur	x0, [x29, #-8]
100001ee0: e0 03 00 f9 	str	x0, [sp]
100001ee4: 17 00 00 94 	bl	0x100001f40 <__ZNSt3__1L22__libcpp_thread_isnullEPKP17_opaque_pthread_t>
100001ee8: e0 0f 00 b9 	str	w0, [sp, #12]
100001eec: 01 00 00 14 	b	0x100001ef0 <__ZNSt3__16threadaSEOS0_+0x28>
100001ef0: e8 0f 40 b9 	ldr	w8, [sp, #12]
100001ef4: 68 00 00 37 	tbnz	w8, #0, 0x100001f00 <__ZNSt3__16threadaSEOS0_+0x38>
100001ef8: 01 00 00 14 	b	0x100001efc <__ZNSt3__16threadaSEOS0_+0x34>
100001efc: 58 07 00 94 	bl	0x100003c5c <_strlen+0x100003c5c>
100001f00: e0 03 40 f9 	ldr	x0, [sp]
100001f04: e8 0b 40 f9 	ldr	x8, [sp, #16]
100001f08: 08 01 40 f9 	ldr	x8, [x8]
100001f0c: 08 00 00 f9 	str	x8, [x0]
100001f10: e8 0b 40 f9 	ldr	x8, [sp, #16]
100001f14: 1f 01 00 f9 	str	xzr, [x8]
100001f18: fd 7b 42 a9 	ldp	x29, x30, [sp, #32]
100001f1c: ff c3 00 91 	add	sp, sp, #48
100001f20: c0 03 5f d6 	ret
100001f24: 13 00 00 94 	bl	0x100001f70 <___clang_call_terminate>

0000000100001f28 <__ZNSt3__16threadC2Ev>:
100001f28: ff 43 00 d1 	sub	sp, sp, #16
100001f2c: e0 07 00 f9 	str	x0, [sp, #8]
100001f30: e0 07 40 f9 	ldr	x0, [sp, #8]
100001f34: 1f 00 00 f9 	str	xzr, [x0]
100001f38: ff 43 00 91 	add	sp, sp, #16
100001f3c: c0 03 5f d6 	ret

0000000100001f40 <__ZNSt3__1L22__libcpp_thread_isnullEPKP17_opaque_pthread_t>:
100001f40: ff 83 00 d1 	sub	sp, sp, #32
100001f44: fd 7b 01 a9 	stp	x29, x30, [sp, #16]
100001f48: fd 43 00 91 	add	x29, sp, #16
100001f4c: e0 07 00 f9 	str	x0, [sp, #8]
100001f50: e0 07 40 f9 	ldr	x0, [sp, #8]
100001f54: 0a 00 00 94 	bl	0x100001f7c <__ZNSt3__1L22__libcpp_thread_get_idEPKP17_opaque_pthread_t>
100001f58: 08 00 00 f1 	subs	x8, x0, #0
100001f5c: e8 17 9f 1a 	cset	w8, eq
100001f60: 00 01 00 12 	and	w0, w8, #0x1
100001f64: fd 7b 41 a9 	ldp	x29, x30, [sp, #16]
100001f68: ff 83 00 91 	add	sp, sp, #32
100001f6c: c0 03 5f d6 	ret

0000000100001f70 <___clang_call_terminate>:
100001f70: fd 7b bf a9 	stp	x29, x30, [sp, #-16]!
100001f74: 46 07 00 94 	bl	0x100003c8c <_strlen+0x100003c8c>
100001f78: 39 07 00 94 	bl	0x100003c5c <_strlen+0x100003c5c>

0000000100001f7c <__ZNSt3__1L22__libcpp_thread_get_idEPKP17_opaque_pthread_t>:
100001f7c: ff 43 00 d1 	sub	sp, sp, #16
100001f80: e0 07 00 f9 	str	x0, [sp, #8]
100001f84: e8 07 40 f9 	ldr	x8, [sp, #8]
100001f88: 00 01 40 f9 	ldr	x0, [x8]
100001f8c: ff 43 00 91 	add	sp, sp, #16
100001f90: c0 03 5f d6 	ret

0000000100001f94 <__ZNSt3__124__put_character_sequenceIcNS_11char_traitsIcEEEERNS_13basic_ostreamIT_T0_EES7_PKS4_m>:
100001f94: ff 83 02 d1 	sub	sp, sp, #160
100001f98: fd 7b 09 a9 	stp	x29, x30, [sp, #144]
100001f9c: fd 43 02 91 	add	x29, sp, #144
100001fa0: a0 83 1f f8 	stur	x0, [x29, #-8]
100001fa4: a1 03 1f f8 	stur	x1, [x29, #-16]
100001fa8: a2 83 1e f8 	stur	x2, [x29, #-24]
100001fac: a1 83 5f f8 	ldur	x1, [x29, #-8]
100001fb0: a0 a3 00 d1 	sub	x0, x29, #40
100001fb4: f7 06 00 94 	bl	0x100003b90 <_strlen+0x100003b90>
100001fb8: 01 00 00 14 	b	0x100001fbc <__ZNSt3__124__put_character_sequenceIcNS_11char_traitsIcEEEERNS_13basic_ostreamIT_T0_EES7_PKS4_m+0x28>
100001fbc: a0 a3 00 d1 	sub	x0, x29, #40
100001fc0: 78 00 00 94 	bl	0x1000021a0 <__ZNKSt3__113basic_ostreamIcNS_11char_traitsIcEEE6sentrycvbEv>
100001fc4: e0 47 00 b9 	str	w0, [sp, #68]
100001fc8: 01 00 00 14 	b	0x100001fcc <__ZNSt3__124__put_character_sequenceIcNS_11char_traitsIcEEEERNS_13basic_ostreamIT_T0_EES7_PKS4_m+0x38>
100001fcc: e8 47 40 b9 	ldr	w8, [sp, #68]
100001fd0: e8 0b 00 36 	tbz	w8, #0, 0x10000214c <__ZNSt3__124__put_character_sequenceIcNS_11char_traitsIcEEEERNS_13basic_ostreamIT_T0_EES7_PKS4_m+0x1b8>
100001fd4: 01 00 00 14 	b	0x100001fd8 <__ZNSt3__124__put_character_sequenceIcNS_11char_traitsIcEEEERNS_13basic_ostreamIT_T0_EES7_PKS4_m+0x44>
100001fd8: a1 83 5f f8 	ldur	x1, [x29, #-8]
100001fdc: e0 23 01 91 	add	x0, sp, #72
100001fe0: fc 00 00 94 	bl	0x1000023d0 <__ZNSt3__119ostreambuf_iteratorIcNS_11char_traitsIcEEEC1ERNS_13basic_ostreamIcS2_EE>
100001fe4: a8 03 5f f8 	ldur	x8, [x29, #-16]
100001fe8: e8 1f 00 f9 	str	x8, [sp, #56]
100001fec: a8 83 5f f8 	ldur	x8, [x29, #-8]
100001ff0: 09 01 40 f9 	ldr	x9, [x8]
100001ff4: 29 81 5e f8 	ldur	x9, [x9, #-24]
100001ff8: 00 01 09 8b 	add	x0, x8, x9
100001ffc: 02 01 00 94 	bl	0x100002404 <__ZNKSt3__18ios_base5flagsEv>
100002000: e0 43 00 b9 	str	w0, [sp, #64]
100002004: 01 00 00 14 	b	0x100002008 <__ZNSt3__124__put_character_sequenceIcNS_11char_traitsIcEEEERNS_13basic_ostreamIT_T0_EES7_PKS4_m+0x74>
100002008: e8 43 40 b9 	ldr	w8, [sp, #64]
10000200c: 09 16 80 52 	mov	w9, #176
100002010: 08 01 09 0a 	and	w8, w8, w9
100002014: 08 81 00 71 	subs	w8, w8, #32
100002018: e1 00 00 54 	b.ne	0x100002034 <__ZNSt3__124__put_character_sequenceIcNS_11char_traitsIcEEEERNS_13basic_ostreamIT_T0_EES7_PKS4_m+0xa0>
10000201c: 01 00 00 14 	b	0x100002020 <__ZNSt3__124__put_character_sequenceIcNS_11char_traitsIcEEEERNS_13basic_ostreamIT_T0_EES7_PKS4_m+0x8c>
100002020: a8 03 5f f8 	ldur	x8, [x29, #-16]
100002024: a9 83 5e f8 	ldur	x9, [x29, #-24]
100002028: 08 01 09 8b 	add	x8, x8, x9
10000202c: e8 1b 00 f9 	str	x8, [sp, #48]
100002030: 04 00 00 14 	b	0x100002040 <__ZNSt3__124__put_character_sequenceIcNS_11char_traitsIcEEEERNS_13basic_ostreamIT_T0_EES7_PKS4_m+0xac>
100002034: a8 03 5f f8 	ldur	x8, [x29, #-16]
100002038: e8 1b 00 f9 	str	x8, [sp, #48]
10000203c: 01 00 00 14 	b	0x100002040 <__ZNSt3__124__put_character_sequenceIcNS_11char_traitsIcEEEERNS_13basic_ostreamIT_T0_EES7_PKS4_m+0xac>
100002040: e8 1b 40 f9 	ldr	x8, [sp, #48]
100002044: e8 0b 00 f9 	str	x8, [sp, #16]
100002048: a8 03 5f f8 	ldur	x8, [x29, #-16]
10000204c: a9 83 5e f8 	ldur	x9, [x29, #-24]
100002050: 08 01 09 8b 	add	x8, x8, x9
100002054: e8 0f 00 f9 	str	x8, [sp, #24]
100002058: a8 83 5f f8 	ldur	x8, [x29, #-8]
10000205c: 09 01 40 f9 	ldr	x9, [x8]
100002060: 29 81 5e f8 	ldur	x9, [x9, #-24]
100002064: 08 01 09 8b 	add	x8, x8, x9
100002068: e8 13 00 f9 	str	x8, [sp, #32]
10000206c: a8 83 5f f8 	ldur	x8, [x29, #-8]
100002070: 09 01 40 f9 	ldr	x9, [x8]
100002074: 29 81 5e f8 	ldur	x9, [x9, #-24]
100002078: 00 01 09 8b 	add	x0, x8, x9
10000207c: e8 00 00 94 	bl	0x10000241c <__ZNKSt3__19basic_iosIcNS_11char_traitsIcEEE4fillEv>
100002080: e0 2f 00 b9 	str	w0, [sp, #44]
100002084: 01 00 00 14 	b	0x100002088 <__ZNSt3__124__put_character_sequenceIcNS_11char_traitsIcEEEERNS_13basic_ostreamIT_T0_EES7_PKS4_m+0xf4>
100002088: e8 2f 40 b9 	ldr	w8, [sp, #44]
10000208c: e4 13 40 f9 	ldr	x4, [sp, #32]
100002090: e3 0f 40 f9 	ldr	x3, [sp, #24]
100002094: e2 0b 40 f9 	ldr	x2, [sp, #16]
100002098: e1 1f 40 f9 	ldr	x1, [sp, #56]
10000209c: e0 27 40 f9 	ldr	x0, [sp, #72]
1000020a0: 05 1d 00 13 	sxtb	w5, w8
1000020a4: 46 00 00 94 	bl	0x1000021bc <__ZNSt3__116__pad_and_outputIcNS_11char_traitsIcEEEENS_19ostreambuf_iteratorIT_T0_EES6_PKS4_S8_S8_RNS_8ios_baseES4_>
1000020a8: e0 07 00 f9 	str	x0, [sp, #8]
1000020ac: 01 00 00 14 	b	0x1000020b0 <__ZNSt3__124__put_character_sequenceIcNS_11char_traitsIcEEEERNS_13basic_ostreamIT_T0_EES7_PKS4_m+0x11c>
1000020b0: e8 07 40 f9 	ldr	x8, [sp, #8]
1000020b4: a0 03 01 d1 	sub	x0, x29, #64
1000020b8: a8 03 1c f8 	stur	x8, [x29, #-64]
1000020bc: f1 00 00 94 	bl	0x100002480 <__ZNKSt3__119ostreambuf_iteratorIcNS_11char_traitsIcEEE6failedEv>
1000020c0: 40 04 00 36 	tbz	w0, #0, 0x100002148 <__ZNSt3__124__put_character_sequenceIcNS_11char_traitsIcEEEERNS_13basic_ostreamIT_T0_EES7_PKS4_m+0x1b4>
1000020c4: 01 00 00 14 	b	0x1000020c8 <__ZNSt3__124__put_character_sequenceIcNS_11char_traitsIcEEEERNS_13basic_ostreamIT_T0_EES7_PKS4_m+0x134>
1000020c8: a8 83 5f f8 	ldur	x8, [x29, #-8]
1000020cc: 09 01 40 f9 	ldr	x9, [x8]
1000020d0: 29 81 5e f8 	ldur	x9, [x9, #-24]
1000020d4: 00 01 09 8b 	add	x0, x8, x9
1000020d8: a1 00 80 52 	mov	w1, #5
1000020dc: f2 00 00 94 	bl	0x1000024a4 <__ZNSt3__19basic_iosIcNS_11char_traitsIcEEE8setstateEj>
1000020e0: 01 00 00 14 	b	0x1000020e4 <__ZNSt3__124__put_character_sequenceIcNS_11char_traitsIcEEEERNS_13basic_ostreamIT_T0_EES7_PKS4_m+0x150>
1000020e4: 19 00 00 14 	b	0x100002148 <__ZNSt3__124__put_character_sequenceIcNS_11char_traitsIcEEEERNS_13basic_ostreamIT_T0_EES7_PKS4_m+0x1b4>
1000020e8: e8 03 01 aa 	mov	x8, x1
1000020ec: a0 03 1d f8 	stur	x0, [x29, #-48]
1000020f0: a8 c3 1c b8 	stur	w8, [x29, #-52]
1000020f4: 07 00 00 14 	b	0x100002110 <__ZNSt3__124__put_character_sequenceIcNS_11char_traitsIcEEEERNS_13basic_ostreamIT_T0_EES7_PKS4_m+0x17c>
1000020f8: e8 03 01 aa 	mov	x8, x1
1000020fc: a0 03 1d f8 	stur	x0, [x29, #-48]
100002100: a8 c3 1c b8 	stur	w8, [x29, #-52]
100002104: a0 a3 00 d1 	sub	x0, x29, #40
100002108: a5 06 00 94 	bl	0x100003b9c <_strlen+0x100003b9c>
10000210c: 01 00 00 14 	b	0x100002110 <__ZNSt3__124__put_character_sequenceIcNS_11char_traitsIcEEEERNS_13basic_ostreamIT_T0_EES7_PKS4_m+0x17c>
100002110: a0 03 5d f8 	ldur	x0, [x29, #-48]
100002114: de 06 00 94 	bl	0x100003c8c <_strlen+0x100003c8c>
100002118: a8 83 5f f8 	ldur	x8, [x29, #-8]
10000211c: 09 01 40 f9 	ldr	x9, [x8]
100002120: 29 81 5e f8 	ldur	x9, [x9, #-24]
100002124: 00 01 09 8b 	add	x0, x8, x9
100002128: c4 06 00 94 	bl	0x100003c38 <_strlen+0x100003c38>
10000212c: 01 00 00 14 	b	0x100002130 <__ZNSt3__124__put_character_sequenceIcNS_11char_traitsIcEEEERNS_13basic_ostreamIT_T0_EES7_PKS4_m+0x19c>
100002130: da 06 00 94 	bl	0x100003c98 <_strlen+0x100003c98>
100002134: 01 00 00 14 	b	0x100002138 <__ZNSt3__124__put_character_sequenceIcNS_11char_traitsIcEEEERNS_13basic_ostreamIT_T0_EES7_PKS4_m+0x1a4>
100002138: a0 83 5f f8 	ldur	x0, [x29, #-8]
10000213c: fd 7b 49 a9 	ldp	x29, x30, [sp, #144]
100002140: ff 83 02 91 	add	sp, sp, #160
100002144: c0 03 5f d6 	ret
100002148: 01 00 00 14 	b	0x10000214c <__ZNSt3__124__put_character_sequenceIcNS_11char_traitsIcEEEERNS_13basic_ostreamIT_T0_EES7_PKS4_m+0x1b8>
10000214c: a0 a3 00 d1 	sub	x0, x29, #40
100002150: 93 06 00 94 	bl	0x100003b9c <_strlen+0x100003b9c>
100002154: f9 ff ff 17 	b	0x100002138 <__ZNSt3__124__put_character_sequenceIcNS_11char_traitsIcEEEERNS_13basic_ostreamIT_T0_EES7_PKS4_m+0x1a4>
100002158: e8 03 01 aa 	mov	x8, x1
10000215c: a0 03 1d f8 	stur	x0, [x29, #-48]
100002160: a8 c3 1c b8 	stur	w8, [x29, #-52]
100002164: cd 06 00 94 	bl	0x100003c98 <_strlen+0x100003c98>
100002168: 01 00 00 14 	b	0x10000216c <__ZNSt3__124__put_character_sequenceIcNS_11char_traitsIcEEEERNS_13basic_ostreamIT_T0_EES7_PKS4_m+0x1d8>
10000216c: 01 00 00 14 	b	0x100002170 <__ZNSt3__124__put_character_sequenceIcNS_11char_traitsIcEEEERNS_13basic_ostreamIT_T0_EES7_PKS4_m+0x1dc>
100002170: a0 03 5d f8 	ldur	x0, [x29, #-48]
100002174: 6f 06 00 94 	bl	0x100003b30 <_strlen+0x100003b30>
100002178: 7e ff ff 97 	bl	0x100001f70 <___clang_call_terminate>

000000010000217c <__ZNSt3__111char_traitsIcE6lengthEPKc>:
10000217c: ff 83 00 d1 	sub	sp, sp, #32
100002180: fd 7b 01 a9 	stp	x29, x30, [sp, #16]
100002184: fd 43 00 91 	add	x29, sp, #16
100002188: e0 07 00 f9 	str	x0, [sp, #8]
10000218c: e0 07 40 f9 	ldr	x0, [sp, #8]
100002190: ce 06 00 94 	bl	0x100003cc8 <_strlen+0x100003cc8>
100002194: fd 7b 41 a9 	ldp	x29, x30, [sp, #16]
100002198: ff 83 00 91 	add	sp, sp, #32
10000219c: c0 03 5f d6 	ret

00000001000021a0 <__ZNKSt3__113basic_ostreamIcNS_11char_traitsIcEEE6sentrycvbEv>:
1000021a0: ff 43 00 d1 	sub	sp, sp, #16
1000021a4: e0 07 00 f9 	str	x0, [sp, #8]
1000021a8: e8 07 40 f9 	ldr	x8, [sp, #8]
1000021ac: 08 01 40 39 	ldrb	w8, [x8]
1000021b0: 00 01 00 12 	and	w0, w8, #0x1
1000021b4: ff 43 00 91 	add	sp, sp, #16
1000021b8: c0 03 5f d6 	ret

00000001000021bc <__ZNSt3__116__pad_and_outputIcNS_11char_traitsIcEEEENS_19ostreambuf_iteratorIT_T0_EES6_PKS4_S8_S8_RNS_8ios_baseES4_>:
1000021bc: ff 83 02 d1 	sub	sp, sp, #160
1000021c0: fd 7b 09 a9 	stp	x29, x30, [sp, #144]
1000021c4: fd 43 02 91 	add	x29, sp, #144
1000021c8: a0 03 1f f8 	stur	x0, [x29, #-16]
1000021cc: a1 83 1e f8 	stur	x1, [x29, #-24]
1000021d0: a2 03 1e f8 	stur	x2, [x29, #-32]
1000021d4: a3 83 1d f8 	stur	x3, [x29, #-40]
1000021d8: a4 03 1d f8 	stur	x4, [x29, #-48]
1000021dc: a5 f3 1c 38 	sturb	w5, [x29, #-49]
1000021e0: a8 03 5f f8 	ldur	x8, [x29, #-16]
1000021e4: a8 00 00 b5 	cbnz	x8, 0x1000021f8 <__ZNSt3__116__pad_and_outputIcNS_11char_traitsIcEEEENS_19ostreambuf_iteratorIT_T0_EES6_PKS4_S8_S8_RNS_8ios_baseES4_+0x3c>
1000021e8: 01 00 00 14 	b	0x1000021ec <__ZNSt3__116__pad_and_outputIcNS_11char_traitsIcEEEENS_19ostreambuf_iteratorIT_T0_EES6_PKS4_S8_S8_RNS_8ios_baseES4_+0x30>
1000021ec: a8 03 5f f8 	ldur	x8, [x29, #-16]
1000021f0: a8 83 1f f8 	stur	x8, [x29, #-8]
1000021f4: 71 00 00 14 	b	0x1000023b8 <__ZNSt3__116__pad_and_outputIcNS_11char_traitsIcEEEENS_19ostreambuf_iteratorIT_T0_EES6_PKS4_S8_S8_RNS_8ios_baseES4_+0x1fc>
1000021f8: a8 83 5d f8 	ldur	x8, [x29, #-40]
1000021fc: a9 83 5e f8 	ldur	x9, [x29, #-24]
100002200: 08 01 09 eb 	subs	x8, x8, x9
100002204: a8 03 1c f8 	stur	x8, [x29, #-64]
100002208: a0 03 5d f8 	ldur	x0, [x29, #-48]
10000220c: b1 00 00 94 	bl	0x1000024d0 <__ZNKSt3__18ios_base5widthEv>
100002210: e0 27 00 f9 	str	x0, [sp, #72]
100002214: e8 27 40 f9 	ldr	x8, [sp, #72]
100002218: a9 03 5c f8 	ldur	x9, [x29, #-64]
10000221c: 08 01 09 eb 	subs	x8, x8, x9
100002220: ed 00 00 54 	b.le	0x10000223c <__ZNSt3__116__pad_and_outputIcNS_11char_traitsIcEEEENS_19ostreambuf_iteratorIT_T0_EES6_PKS4_S8_S8_RNS_8ios_baseES4_+0x80>
100002224: 01 00 00 14 	b	0x100002228 <__ZNSt3__116__pad_and_outputIcNS_11char_traitsIcEEEENS_19ostreambuf_iteratorIT_T0_EES6_PKS4_S8_S8_RNS_8ios_baseES4_+0x6c>
100002228: a9 03 5c f8 	ldur	x9, [x29, #-64]
10000222c: e8 27 40 f9 	ldr	x8, [sp, #72]
100002230: 08 01 09 eb 	subs	x8, x8, x9
100002234: e8 27 00 f9 	str	x8, [sp, #72]
100002238: 03 00 00 14 	b	0x100002244 <__ZNSt3__116__pad_and_outputIcNS_11char_traitsIcEEEENS_19ostreambuf_iteratorIT_T0_EES6_PKS4_S8_S8_RNS_8ios_baseES4_+0x88>
10000223c: ff 27 00 f9 	str	xzr, [sp, #72]
100002240: 01 00 00 14 	b	0x100002244 <__ZNSt3__116__pad_and_outputIcNS_11char_traitsIcEEEENS_19ostreambuf_iteratorIT_T0_EES6_PKS4_S8_S8_RNS_8ios_baseES4_+0x88>
100002244: a8 03 5e f8 	ldur	x8, [x29, #-32]
100002248: a9 83 5e f8 	ldur	x9, [x29, #-24]
10000224c: 08 01 09 eb 	subs	x8, x8, x9
100002250: e8 23 00 f9 	str	x8, [sp, #64]
100002254: e8 23 40 f9 	ldr	x8, [sp, #64]
100002258: 08 01 00 f1 	subs	x8, x8, #0
10000225c: ed 01 00 54 	b.le	0x100002298 <__ZNSt3__116__pad_and_outputIcNS_11char_traitsIcEEEENS_19ostreambuf_iteratorIT_T0_EES6_PKS4_S8_S8_RNS_8ios_baseES4_+0xdc>
100002260: 01 00 00 14 	b	0x100002264 <__ZNSt3__116__pad_and_outputIcNS_11char_traitsIcEEEENS_19ostreambuf_iteratorIT_T0_EES6_PKS4_S8_S8_RNS_8ios_baseES4_+0xa8>
100002264: a0 03 5f f8 	ldur	x0, [x29, #-16]
100002268: a1 83 5e f8 	ldur	x1, [x29, #-24]
10000226c: e2 23 40 f9 	ldr	x2, [sp, #64]
100002270: 9e 00 00 94 	bl	0x1000024e8 <__ZNSt3__115basic_streambufIcNS_11char_traitsIcEEE5sputnEPKcl>
100002274: e8 23 40 f9 	ldr	x8, [sp, #64]
100002278: 08 00 08 eb 	subs	x8, x0, x8
10000227c: c0 00 00 54 	b.eq	0x100002294 <__ZNSt3__116__pad_and_outputIcNS_11char_traitsIcEEEENS_19ostreambuf_iteratorIT_T0_EES6_PKS4_S8_S8_RNS_8ios_baseES4_+0xd8>
100002280: 01 00 00 14 	b	0x100002284 <__ZNSt3__116__pad_and_outputIcNS_11char_traitsIcEEEENS_19ostreambuf_iteratorIT_T0_EES6_PKS4_S8_S8_RNS_8ios_baseES4_+0xc8>
100002284: bf 03 1f f8 	stur	xzr, [x29, #-16]
100002288: a8 03 5f f8 	ldur	x8, [x29, #-16]
10000228c: a8 83 1f f8 	stur	x8, [x29, #-8]
100002290: 4a 00 00 14 	b	0x1000023b8 <__ZNSt3__116__pad_and_outputIcNS_11char_traitsIcEEEENS_19ostreambuf_iteratorIT_T0_EES6_PKS4_S8_S8_RNS_8ios_baseES4_+0x1fc>
100002294: 01 00 00 14 	b	0x100002298 <__ZNSt3__116__pad_and_outputIcNS_11char_traitsIcEEEENS_19ostreambuf_iteratorIT_T0_EES6_PKS4_S8_S8_RNS_8ios_baseES4_+0xdc>
100002298: e8 27 40 f9 	ldr	x8, [sp, #72]
10000229c: 08 01 00 f1 	subs	x8, x8, #0
1000022a0: 6d 05 00 54 	b.le	0x10000234c <__ZNSt3__116__pad_and_outputIcNS_11char_traitsIcEEEENS_19ostreambuf_iteratorIT_T0_EES6_PKS4_S8_S8_RNS_8ios_baseES4_+0x190>
1000022a4: 01 00 00 14 	b	0x1000022a8 <__ZNSt3__116__pad_and_outputIcNS_11char_traitsIcEEEENS_19ostreambuf_iteratorIT_T0_EES6_PKS4_S8_S8_RNS_8ios_baseES4_+0xec>
1000022a8: e1 27 40 f9 	ldr	x1, [sp, #72]
1000022ac: a2 f3 dc 38 	ldursb	w2, [x29, #-49]
1000022b0: e0 a3 00 91 	add	x0, sp, #40
1000022b4: e0 03 00 f9 	str	x0, [sp]
1000022b8: 9b 00 00 94 	bl	0x100002524 <__ZNSt3__112basic_stringIcNS_11char_traitsIcEENS_9allocatorIcEEEC1Emc>
1000022bc: e0 03 40 f9 	ldr	x0, [sp]
1000022c0: a8 03 5f f8 	ldur	x8, [x29, #-16]
1000022c4: e8 07 00 f9 	str	x8, [sp, #8]
1000022c8: a6 00 00 94 	bl	0x100002560 <__ZNKSt3__112basic_stringIcNS_11char_traitsIcEENS_9allocatorIcEEE4dataEv>
1000022cc: e1 03 00 aa 	mov	x1, x0
1000022d0: e0 07 40 f9 	ldr	x0, [sp, #8]
1000022d4: e2 27 40 f9 	ldr	x2, [sp, #72]
1000022d8: 84 00 00 94 	bl	0x1000024e8 <__ZNSt3__115basic_streambufIcNS_11char_traitsIcEEE5sputnEPKcl>
1000022dc: e0 0b 00 f9 	str	x0, [sp, #16]
1000022e0: 01 00 00 14 	b	0x1000022e4 <__ZNSt3__116__pad_and_outputIcNS_11char_traitsIcEEEENS_19ostreambuf_iteratorIT_T0_EES6_PKS4_S8_S8_RNS_8ios_baseES4_+0x128>
1000022e4: e8 0b 40 f9 	ldr	x8, [sp, #16]
1000022e8: e9 27 40 f9 	ldr	x9, [sp, #72]
1000022ec: 08 01 09 eb 	subs	x8, x8, x9
1000022f0: c0 01 00 54 	b.eq	0x100002328 <__ZNSt3__116__pad_and_outputIcNS_11char_traitsIcEEEENS_19ostreambuf_iteratorIT_T0_EES6_PKS4_S8_S8_RNS_8ios_baseES4_+0x16c>
1000022f4: 01 00 00 14 	b	0x1000022f8 <__ZNSt3__116__pad_and_outputIcNS_11char_traitsIcEEEENS_19ostreambuf_iteratorIT_T0_EES6_PKS4_S8_S8_RNS_8ios_baseES4_+0x13c>
1000022f8: bf 03 1f f8 	stur	xzr, [x29, #-16]
1000022fc: a8 03 5f f8 	ldur	x8, [x29, #-16]
100002300: a8 83 1f f8 	stur	x8, [x29, #-8]
100002304: 28 00 80 52 	mov	w8, #1
100002308: e8 1b 00 b9 	str	w8, [sp, #24]
10000230c: 09 00 00 14 	b	0x100002330 <__ZNSt3__116__pad_and_outputIcNS_11char_traitsIcEEEENS_19ostreambuf_iteratorIT_T0_EES6_PKS4_S8_S8_RNS_8ios_baseES4_+0x174>
100002310: e8 03 01 aa 	mov	x8, x1
100002314: e0 13 00 f9 	str	x0, [sp, #32]
100002318: e8 1f 00 b9 	str	w8, [sp, #28]
10000231c: e0 a3 00 91 	add	x0, sp, #40
100002320: 19 06 00 94 	bl	0x100003b84 <_strlen+0x100003b84>
100002324: 29 00 00 14 	b	0x1000023c8 <__ZNSt3__116__pad_and_outputIcNS_11char_traitsIcEEEENS_19ostreambuf_iteratorIT_T0_EES6_PKS4_S8_S8_RNS_8ios_baseES4_+0x20c>
100002328: ff 1b 00 b9 	str	wzr, [sp, #24]
10000232c: 01 00 00 14 	b	0x100002330 <__ZNSt3__116__pad_and_outputIcNS_11char_traitsIcEEEENS_19ostreambuf_iteratorIT_T0_EES6_PKS4_S8_S8_RNS_8ios_baseES4_+0x174>
100002330: e0 a3 00 91 	add	x0, sp, #40
100002334: 14 06 00 94 	bl	0x100003b84 <_strlen+0x100003b84>
100002338: e8 1b 40 b9 	ldr	w8, [sp, #24]
10000233c: 68 00 00 34 	cbz	w8, 0x100002348 <__ZNSt3__116__pad_and_outputIcNS_11char_traitsIcEEEENS_19ostreambuf_iteratorIT_T0_EES6_PKS4_S8_S8_RNS_8ios_baseES4_+0x18c>
100002340: 01 00 00 14 	b	0x100002344 <__ZNSt3__116__pad_and_outputIcNS_11char_traitsIcEEEENS_19ostreambuf_iteratorIT_T0_EES6_PKS4_S8_S8_RNS_8ios_baseES4_+0x188>
100002344: 1d 00 00 14 	b	0x1000023b8 <__ZNSt3__116__pad_and_outputIcNS_11char_traitsIcEEEENS_19ostreambuf_iteratorIT_T0_EES6_PKS4_S8_S8_RNS_8ios_baseES4_+0x1fc>
100002348: 01 00 00 14 	b	0x10000234c <__ZNSt3__116__pad_and_outputIcNS_11char_traitsIcEEEENS_19ostreambuf_iteratorIT_T0_EES6_PKS4_S8_S8_RNS_8ios_baseES4_+0x190>
10000234c: a8 83 5d f8 	ldur	x8, [x29, #-40]
100002350: a9 03 5e f8 	ldur	x9, [x29, #-32]
100002354: 08 01 09 eb 	subs	x8, x8, x9
100002358: e8 23 00 f9 	str	x8, [sp, #64]
10000235c: e8 23 40 f9 	ldr	x8, [sp, #64]
100002360: 08 01 00 f1 	subs	x8, x8, #0
100002364: ed 01 00 54 	b.le	0x1000023a0 <__ZNSt3__116__pad_and_outputIcNS_11char_traitsIcEEEENS_19ostreambuf_iteratorIT_T0_EES6_PKS4_S8_S8_RNS_8ios_baseES4_+0x1e4>
100002368: 01 00 00 14 	b	0x10000236c <__ZNSt3__116__pad_and_outputIcNS_11char_traitsIcEEEENS_19ostreambuf_iteratorIT_T0_EES6_PKS4_S8_S8_RNS_8ios_baseES4_+0x1b0>
10000236c: a0 03 5f f8 	ldur	x0, [x29, #-16]
100002370: a1 03 5e f8 	ldur	x1, [x29, #-32]
100002374: e2 23 40 f9 	ldr	x2, [sp, #64]
100002378: 5c 00 00 94 	bl	0x1000024e8 <__ZNSt3__115basic_streambufIcNS_11char_traitsIcEEE5sputnEPKcl>
10000237c: e8 23 40 f9 	ldr	x8, [sp, #64]
100002380: 08 00 08 eb 	subs	x8, x0, x8
100002384: c0 00 00 54 	b.eq	0x10000239c <__ZNSt3__116__pad_and_outputIcNS_11char_traitsIcEEEENS_19ostreambuf_iteratorIT_T0_EES6_PKS4_S8_S8_RNS_8ios_baseES4_+0x1e0>
100002388: 01 00 00 14 	b	0x10000238c <__ZNSt3__116__pad_and_outputIcNS_11char_traitsIcEEEENS_19ostreambuf_iteratorIT_T0_EES6_PKS4_S8_S8_RNS_8ios_baseES4_+0x1d0>
10000238c: bf 03 1f f8 	stur	xzr, [x29, #-16]
100002390: a8 03 5f f8 	ldur	x8, [x29, #-16]
100002394: a8 83 1f f8 	stur	x8, [x29, #-8]
100002398: 08 00 00 14 	b	0x1000023b8 <__ZNSt3__116__pad_and_outputIcNS_11char_traitsIcEEEENS_19ostreambuf_iteratorIT_T0_EES6_PKS4_S8_S8_RNS_8ios_baseES4_+0x1fc>
10000239c: 01 00 00 14 	b	0x1000023a0 <__ZNSt3__116__pad_and_outputIcNS_11char_traitsIcEEEENS_19ostreambuf_iteratorIT_T0_EES6_PKS4_S8_S8_RNS_8ios_baseES4_+0x1e4>
1000023a0: a0 03 5d f8 	ldur	x0, [x29, #-48]
1000023a4: 01 00 80 d2 	mov	x1, #0
1000023a8: 78 00 00 94 	bl	0x100002588 <__ZNSt3__18ios_base5widthEl>
1000023ac: a8 03 5f f8 	ldur	x8, [x29, #-16]
1000023b0: a8 83 1f f8 	stur	x8, [x29, #-8]
1000023b4: 01 00 00 14 	b	0x1000023b8 <__ZNSt3__116__pad_and_outputIcNS_11char_traitsIcEEEENS_19ostreambuf_iteratorIT_T0_EES6_PKS4_S8_S8_RNS_8ios_baseES4_+0x1fc>
1000023b8: a0 83 5f f8 	ldur	x0, [x29, #-8]
1000023bc: fd 7b 49 a9 	ldp	x29, x30, [sp, #144]
1000023c0: ff 83 02 91 	add	sp, sp, #160
1000023c4: c0 03 5f d6 	ret
1000023c8: e0 13 40 f9 	ldr	x0, [sp, #32]
1000023cc: d9 05 00 94 	bl	0x100003b30 <_strlen+0x100003b30>

00000001000023d0 <__ZNSt3__119ostreambuf_iteratorIcNS_11char_traitsIcEEEC1ERNS_13basic_ostreamIcS2_EE>:
1000023d0: ff c3 00 d1 	sub	sp, sp, #48
1000023d4: fd 7b 02 a9 	stp	x29, x30, [sp, #32]
1000023d8: fd 83 00 91 	add	x29, sp, #32
1000023dc: a0 83 1f f8 	stur	x0, [x29, #-8]
1000023e0: e1 0b 00 f9 	str	x1, [sp, #16]
1000023e4: a0 83 5f f8 	ldur	x0, [x29, #-8]
1000023e8: e0 07 00 f9 	str	x0, [sp, #8]
1000023ec: e1 0b 40 f9 	ldr	x1, [sp, #16]
1000023f0: 23 01 00 94 	bl	0x10000287c <__ZNSt3__119ostreambuf_iteratorIcNS_11char_traitsIcEEEC2ERNS_13basic_ostreamIcS2_EE>
1000023f4: e0 07 40 f9 	ldr	x0, [sp, #8]
1000023f8: fd 7b 42 a9 	ldp	x29, x30, [sp, #32]
1000023fc: ff c3 00 91 	add	sp, sp, #48
100002400: c0 03 5f d6 	ret

0000000100002404 <__ZNKSt3__18ios_base5flagsEv>:
100002404: ff 43 00 d1 	sub	sp, sp, #16
100002408: e0 07 00 f9 	str	x0, [sp, #8]
10000240c: e8 07 40 f9 	ldr	x8, [sp, #8]
100002410: 00 09 40 b9 	ldr	w0, [x8, #8]
100002414: ff 43 00 91 	add	sp, sp, #16
100002418: c0 03 5f d6 	ret

000000010000241c <__ZNKSt3__19basic_iosIcNS_11char_traitsIcEEE4fillEv>:
10000241c: ff 83 00 d1 	sub	sp, sp, #32
100002420: fd 7b 01 a9 	stp	x29, x30, [sp, #16]
100002424: fd 43 00 91 	add	x29, sp, #16
100002428: e0 07 00 f9 	str	x0, [sp, #8]
10000242c: e8 07 40 f9 	ldr	x8, [sp, #8]
100002430: e8 03 00 f9 	str	x8, [sp]
100002434: cb 05 00 94 	bl	0x100003b60 <_strlen+0x100003b60>
100002438: e8 03 40 f9 	ldr	x8, [sp]
10000243c: 01 91 40 b9 	ldr	w1, [x8, #144]
100002440: c5 05 00 94 	bl	0x100003b54 <_strlen+0x100003b54>
100002444: 20 01 00 36 	tbz	w0, #0, 0x100002468 <__ZNKSt3__19basic_iosIcNS_11char_traitsIcEEE4fillEv+0x4c>
100002448: 01 00 00 14 	b	0x10000244c <__ZNKSt3__19basic_iosIcNS_11char_traitsIcEEE4fillEv+0x30>
10000244c: e0 03 40 f9 	ldr	x0, [sp]
100002450: 01 04 80 52 	mov	w1, #32
100002454: 3a 01 00 94 	bl	0x10000293c <__ZNKSt3__19basic_iosIcNS_11char_traitsIcEEE5widenEc>
100002458: e9 03 40 f9 	ldr	x9, [sp]
10000245c: 08 1c 00 13 	sxtb	w8, w0
100002460: 28 91 00 b9 	str	w8, [x9, #144]
100002464: 01 00 00 14 	b	0x100002468 <__ZNKSt3__19basic_iosIcNS_11char_traitsIcEEE4fillEv+0x4c>
100002468: e8 03 40 f9 	ldr	x8, [sp]
10000246c: 08 91 40 b9 	ldr	w8, [x8, #144]
100002470: 00 1d 00 13 	sxtb	w0, w8
100002474: fd 7b 41 a9 	ldp	x29, x30, [sp, #16]
100002478: ff 83 00 91 	add	sp, sp, #32
10000247c: c0 03 5f d6 	ret

0000000100002480 <__ZNKSt3__119ostreambuf_iteratorIcNS_11char_traitsIcEEE6failedEv>:
100002480: ff 43 00 d1 	sub	sp, sp, #16
100002484: e0 07 00 f9 	str	x0, [sp, #8]
100002488: e8 07 40 f9 	ldr	x8, [sp, #8]
10000248c: 08 01 40 f9 	ldr	x8, [x8]
100002490: 08 01 00 f1 	subs	x8, x8, #0
100002494: e8 17 9f 1a 	cset	w8, eq
100002498: 00 01 00 12 	and	w0, w8, #0x1
10000249c: ff 43 00 91 	add	sp, sp, #16
1000024a0: c0 03 5f d6 	ret

00000001000024a4 <__ZNSt3__19basic_iosIcNS_11char_traitsIcEEE8setstateEj>:
1000024a4: ff 83 00 d1 	sub	sp, sp, #32
1000024a8: fd 7b 01 a9 	stp	x29, x30, [sp, #16]
1000024ac: fd 43 00 91 	add	x29, sp, #16
1000024b0: e0 07 00 f9 	str	x0, [sp, #8]
1000024b4: e1 07 00 b9 	str	w1, [sp, #4]
1000024b8: e0 07 40 f9 	ldr	x0, [sp, #8]
1000024bc: e1 07 40 b9 	ldr	w1, [sp, #4]
1000024c0: 59 01 00 94 	bl	0x100002a24 <__ZNSt3__18ios_base8setstateEj>
1000024c4: fd 7b 41 a9 	ldp	x29, x30, [sp, #16]
1000024c8: ff 83 00 91 	add	sp, sp, #32
1000024cc: c0 03 5f d6 	ret

00000001000024d0 <__ZNKSt3__18ios_base5widthEv>:
1000024d0: ff 43 00 d1 	sub	sp, sp, #16
1000024d4: e0 07 00 f9 	str	x0, [sp, #8]
1000024d8: e8 07 40 f9 	ldr	x8, [sp, #8]
1000024dc: 00 0d 40 f9 	ldr	x0, [x8, #24]
1000024e0: ff 43 00 91 	add	sp, sp, #16
1000024e4: c0 03 5f d6 	ret

00000001000024e8 <__ZNSt3__115basic_streambufIcNS_11char_traitsIcEEE5sputnEPKcl>:
1000024e8: ff c3 00 d1 	sub	sp, sp, #48
1000024ec: fd 7b 02 a9 	stp	x29, x30, [sp, #32]
1000024f0: fd 83 00 91 	add	x29, sp, #32
1000024f4: a0 83 1f f8 	stur	x0, [x29, #-8]
1000024f8: e1 0b 00 f9 	str	x1, [sp, #16]
1000024fc: e2 07 00 f9 	str	x2, [sp, #8]
100002500: a0 83 5f f8 	ldur	x0, [x29, #-8]
100002504: e1 0b 40 f9 	ldr	x1, [sp, #16]
100002508: e2 07 40 f9 	ldr	x2, [sp, #8]
10000250c: 08 00 40 f9 	ldr	x8, [x0]
100002510: 08 31 40 f9 	ldr	x8, [x8, #96]
100002514: 00 01 3f d6 	blr	x8
100002518: fd 7b 42 a9 	ldp	x29, x30, [sp, #32]
10000251c: ff c3 00 91 	add	sp, sp, #48
100002520: c0 03 5f d6 	ret

0000000100002524 <__ZNSt3__112basic_stringIcNS_11char_traitsIcEENS_9allocatorIcEEEC1Emc>:
100002524: ff c3 00 d1 	sub	sp, sp, #48
100002528: fd 7b 02 a9 	stp	x29, x30, [sp, #32]
10000252c: fd 83 00 91 	add	x29, sp, #32
100002530: a0 83 1f f8 	stur	x0, [x29, #-8]
100002534: e1 0b 00 f9 	str	x1, [sp, #16]
100002538: e2 3f 00 39 	strb	w2, [sp, #15]
10000253c: a0 83 5f f8 	ldur	x0, [x29, #-8]
100002540: e0 03 00 f9 	str	x0, [sp]
100002544: e1 0b 40 f9 	ldr	x1, [sp, #16]
100002548: e2 3f c0 39 	ldrsb	w2, [sp, #15]
10000254c: 1a 00 00 94 	bl	0x1000025b4 <__ZNSt3__112basic_stringIcNS_11char_traitsIcEENS_9allocatorIcEEEC2Emc>
100002550: e0 03 40 f9 	ldr	x0, [sp]
100002554: fd 7b 42 a9 	ldp	x29, x30, [sp, #32]
100002558: ff c3 00 91 	add	sp, sp, #48
10000255c: c0 03 5f d6 	ret

0000000100002560 <__ZNKSt3__112basic_stringIcNS_11char_traitsIcEENS_9allocatorIcEEE4dataEv>:
100002560: ff 83 00 d1 	sub	sp, sp, #32
100002564: fd 7b 01 a9 	stp	x29, x30, [sp, #16]
100002568: fd 43 00 91 	add	x29, sp, #16
10000256c: e0 07 00 f9 	str	x0, [sp, #8]
100002570: e0 07 40 f9 	ldr	x0, [sp, #8]
100002574: 70 00 00 94 	bl	0x100002734 <__ZNKSt3__112basic_stringIcNS_11char_traitsIcEENS_9allocatorIcEEE13__get_pointerEv>
100002578: 6a 00 00 94 	bl	0x100002720 <__ZNSt3__1L12__to_addressIKcEEPT_S3_>
10000257c: fd 7b 41 a9 	ldp	x29, x30, [sp, #16]
100002580: ff 83 00 91 	add	sp, sp, #32
100002584: c0 03 5f d6 	ret

0000000100002588 <__ZNSt3__18ios_base5widthEl>:
100002588: ff 83 00 d1 	sub	sp, sp, #32
10000258c: e0 0f 00 f9 	str	x0, [sp, #24]
100002590: e1 0b 00 f9 	str	x1, [sp, #16]
100002594: e9 0f 40 f9 	ldr	x9, [sp, #24]
100002598: 28 0d 40 f9 	ldr	x8, [x9, #24]
10000259c: e8 07 00 f9 	str	x8, [sp, #8]
1000025a0: e8 0b 40 f9 	ldr	x8, [sp, #16]
1000025a4: 28 0d 00 f9 	str	x8, [x9, #24]
1000025a8: e0 07 40 f9 	ldr	x0, [sp, #8]
1000025ac: ff 83 00 91 	add	sp, sp, #32
1000025b0: c0 03 5f d6 	ret

00000001000025b4 <__ZNSt3__112basic_stringIcNS_11char_traitsIcEENS_9allocatorIcEEEC2Emc>:
1000025b4: ff c3 00 d1 	sub	sp, sp, #48
1000025b8: fd 7b 02 a9 	stp	x29, x30, [sp, #32]
1000025bc: fd 83 00 91 	add	x29, sp, #32
1000025c0: a0 83 1f f8 	stur	x0, [x29, #-8]
1000025c4: e1 0b 00 f9 	str	x1, [sp, #16]
1000025c8: e2 3f 00 39 	strb	w2, [sp, #15]
1000025cc: a0 83 5f f8 	ldur	x0, [x29, #-8]
1000025d0: e0 03 00 f9 	str	x0, [sp]
1000025d4: e1 3b 00 91 	add	x1, sp, #14
1000025d8: e2 37 00 91 	add	x2, sp, #13
1000025dc: 09 00 00 94 	bl	0x100002600 <__ZNSt3__117__compressed_pairINS_12basic_stringIcNS_11char_traitsIcEENS_9allocatorIcEEE5__repES5_EC1INS_18__default_init_tagESA_EEOT_OT0_>
1000025e0: e0 03 40 f9 	ldr	x0, [sp]
1000025e4: e1 0b 40 f9 	ldr	x1, [sp, #16]
1000025e8: e2 3f c0 39 	ldrsb	w2, [sp, #15]
1000025ec: 63 05 00 94 	bl	0x100003b78 <_strlen+0x100003b78>
1000025f0: e0 03 40 f9 	ldr	x0, [sp]
1000025f4: fd 7b 42 a9 	ldp	x29, x30, [sp, #32]
1000025f8: ff c3 00 91 	add	sp, sp, #48
1000025fc: c0 03 5f d6 	ret

0000000100002600 <__ZNSt3__117__compressed_pairINS_12basic_stringIcNS_11char_traitsIcEENS_9allocatorIcEEE5__repES5_EC1INS_18__default_init_tagESA_EEOT_OT0_>:
100002600: ff c3 00 d1 	sub	sp, sp, #48
100002604: fd 7b 02 a9 	stp	x29, x30, [sp, #32]
100002608: fd 83 00 91 	add	x29, sp, #32
10000260c: a0 83 1f f8 	stur	x0, [x29, #-8]
100002610: e1 0b 00 f9 	str	x1, [sp, #16]
100002614: e2 07 00 f9 	str	x2, [sp, #8]
100002618: a0 83 5f f8 	ldur	x0, [x29, #-8]
10000261c: e0 03 00 f9 	str	x0, [sp]
100002620: e1 0b 40 f9 	ldr	x1, [sp, #16]
100002624: e2 07 40 f9 	ldr	x2, [sp, #8]
100002628: 05 00 00 94 	bl	0x10000263c <__ZNSt3__117__compressed_pairINS_12basic_stringIcNS_11char_traitsIcEENS_9allocatorIcEEE5__repES5_EC2INS_18__default_init_tagESA_EEOT_OT0_>
10000262c: e0 03 40 f9 	ldr	x0, [sp]
100002630: fd 7b 42 a9 	ldp	x29, x30, [sp, #32]
100002634: ff c3 00 91 	add	sp, sp, #48
100002638: c0 03 5f d6 	ret

000000010000263c <__ZNSt3__117__compressed_pairINS_12basic_stringIcNS_11char_traitsIcEENS_9allocatorIcEEE5__repES5_EC2INS_18__default_init_tagESA_EEOT_OT0_>:
10000263c: ff 03 01 d1 	sub	sp, sp, #64
100002640: fd 7b 03 a9 	stp	x29, x30, [sp, #48]
100002644: fd c3 00 91 	add	x29, sp, #48
100002648: a0 83 1f f8 	stur	x0, [x29, #-8]
10000264c: a1 03 1f f8 	stur	x1, [x29, #-16]
100002650: e2 0f 00 f9 	str	x2, [sp, #24]
100002654: a8 83 5f f8 	ldur	x8, [x29, #-8]
100002658: e8 07 00 f9 	str	x8, [sp, #8]
10000265c: a0 03 5f f8 	ldur	x0, [x29, #-16]
100002660: 0b 00 00 94 	bl	0x10000268c <__ZNSt3__1L7forwardINS_18__default_init_tagEEEOT_RNS_16remove_referenceIS2_E4typeE>
100002664: e0 07 40 f9 	ldr	x0, [sp, #8]
100002668: 0e 00 00 94 	bl	0x1000026a0 <__ZNSt3__122__compressed_pair_elemINS_12basic_stringIcNS_11char_traitsIcEENS_9allocatorIcEEE5__repELi0ELb0EEC2ENS_18__default_init_tagE>
10000266c: e0 0f 40 f9 	ldr	x0, [sp, #24]
100002670: 07 00 00 94 	bl	0x10000268c <__ZNSt3__1L7forwardINS_18__default_init_tagEEEOT_RNS_16remove_referenceIS2_E4typeE>
100002674: e0 07 40 f9 	ldr	x0, [sp, #8]
100002678: 0f 00 00 94 	bl	0x1000026b4 <__ZNSt3__122__compressed_pair_elemINS_9allocatorIcEELi1ELb1EEC2ENS_18__default_init_tagE>
10000267c: e0 07 40 f9 	ldr	x0, [sp, #8]
100002680: fd 7b 43 a9 	ldp	x29, x30, [sp, #48]
100002684: ff 03 01 91 	add	sp, sp, #64
100002688: c0 03 5f d6 	ret

000000010000268c <__ZNSt3__1L7forwardINS_18__default_init_tagEEEOT_RNS_16remove_referenceIS2_E4typeE>:
10000268c: ff 43 00 d1 	sub	sp, sp, #16
100002690: e0 07 00 f9 	str	x0, [sp, #8]
100002694: e0 07 40 f9 	ldr	x0, [sp, #8]
100002698: ff 43 00 91 	add	sp, sp, #16
10000269c: c0 03 5f d6 	ret

00000001000026a0 <__ZNSt3__122__compressed_pair_elemINS_12basic_stringIcNS_11char_traitsIcEENS_9allocatorIcEEE5__repELi0ELb0EEC2ENS_18__default_init_tagE>:
1000026a0: ff 43 00 d1 	sub	sp, sp, #16
1000026a4: e0 03 00 f9 	str	x0, [sp]
1000026a8: e0 03 40 f9 	ldr	x0, [sp]
1000026ac: ff 43 00 91 	add	sp, sp, #16
1000026b0: c0 03 5f d6 	ret

00000001000026b4 <__ZNSt3__122__compressed_pair_elemINS_9allocatorIcEELi1ELb1EEC2ENS_18__default_init_tagE>:
1000026b4: ff c3 00 d1 	sub	sp, sp, #48
1000026b8: fd 7b 02 a9 	stp	x29, x30, [sp, #32]
1000026bc: fd 83 00 91 	add	x29, sp, #32
1000026c0: e0 0b 00 f9 	str	x0, [sp, #16]
1000026c4: e0 0b 40 f9 	ldr	x0, [sp, #16]
1000026c8: e0 07 00 f9 	str	x0, [sp, #8]
1000026cc: 05 00 00 94 	bl	0x1000026e0 <__ZNSt3__19allocatorIcEC2Ev>
1000026d0: e0 07 40 f9 	ldr	x0, [sp, #8]
1000026d4: fd 7b 42 a9 	ldp	x29, x30, [sp, #32]
1000026d8: ff c3 00 91 	add	sp, sp, #48
1000026dc: c0 03 5f d6 	ret

00000001000026e0 <__ZNSt3__19allocatorIcEC2Ev>:
1000026e0: ff 83 00 d1 	sub	sp, sp, #32
1000026e4: fd 7b 01 a9 	stp	x29, x30, [sp, #16]
1000026e8: fd 43 00 91 	add	x29, sp, #16
1000026ec: e0 07 00 f9 	str	x0, [sp, #8]
1000026f0: e0 07 40 f9 	ldr	x0, [sp, #8]
1000026f4: e0 03 00 f9 	str	x0, [sp]
1000026f8: 05 00 00 94 	bl	0x10000270c <__ZNSt3__116__non_trivial_ifILb1ENS_9allocatorIcEEEC2Ev>
1000026fc: e0 03 40 f9 	ldr	x0, [sp]
100002700: fd 7b 41 a9 	ldp	x29, x30, [sp, #16]
100002704: ff 83 00 91 	add	sp, sp, #32
100002708: c0 03 5f d6 	ret

000000010000270c <__ZNSt3__116__non_trivial_ifILb1ENS_9allocatorIcEEEC2Ev>:
10000270c: ff 43 00 d1 	sub	sp, sp, #16
100002710: e0 07 00 f9 	str	x0, [sp, #8]
100002714: e0 07 40 f9 	ldr	x0, [sp, #8]
100002718: ff 43 00 91 	add	sp, sp, #16
10000271c: c0 03 5f d6 	ret

0000000100002720 <__ZNSt3__1L12__to_addressIKcEEPT_S3_>:
100002720: ff 43 00 d1 	sub	sp, sp, #16
100002724: e0 07 00 f9 	str	x0, [sp, #8]
100002728: e0 07 40 f9 	ldr	x0, [sp, #8]
10000272c: ff 43 00 91 	add	sp, sp, #16
100002730: c0 03 5f d6 	ret

0000000100002734 <__ZNKSt3__112basic_stringIcNS_11char_traitsIcEENS_9allocatorIcEEE13__get_pointerEv>:
100002734: ff c3 00 d1 	sub	sp, sp, #48
100002738: fd 7b 02 a9 	stp	x29, x30, [sp, #32]
10000273c: fd 83 00 91 	add	x29, sp, #32
100002740: a0 83 1f f8 	stur	x0, [x29, #-8]
100002744: a0 83 5f f8 	ldur	x0, [x29, #-8]
100002748: e0 0b 00 f9 	str	x0, [sp, #16]
10000274c: 0f 00 00 94 	bl	0x100002788 <__ZNKSt3__112basic_stringIcNS_11char_traitsIcEENS_9allocatorIcEEE9__is_longEv>
100002750: c0 00 00 36 	tbz	w0, #0, 0x100002768 <__ZNKSt3__112basic_stringIcNS_11char_traitsIcEENS_9allocatorIcEEE13__get_pointerEv+0x34>
100002754: 01 00 00 14 	b	0x100002758 <__ZNKSt3__112basic_stringIcNS_11char_traitsIcEENS_9allocatorIcEEE13__get_pointerEv+0x24>
100002758: e0 0b 40 f9 	ldr	x0, [sp, #16]
10000275c: 18 00 00 94 	bl	0x1000027bc <__ZNKSt3__112basic_stringIcNS_11char_traitsIcEENS_9allocatorIcEEE18__get_long_pointerEv>
100002760: e0 07 00 f9 	str	x0, [sp, #8]
100002764: 05 00 00 14 	b	0x100002778 <__ZNKSt3__112basic_stringIcNS_11char_traitsIcEENS_9allocatorIcEEE13__get_pointerEv+0x44>
100002768: e0 0b 40 f9 	ldr	x0, [sp, #16]
10000276c: 1e 00 00 94 	bl	0x1000027e4 <__ZNKSt3__112basic_stringIcNS_11char_traitsIcEENS_9allocatorIcEEE19__get_short_pointerEv>
100002770: e0 07 00 f9 	str	x0, [sp, #8]
100002774: 01 00 00 14 	b	0x100002778 <__ZNKSt3__112basic_stringIcNS_11char_traitsIcEENS_9allocatorIcEEE13__get_pointerEv+0x44>
100002778: e0 07 40 f9 	ldr	x0, [sp, #8]
10000277c: fd 7b 42 a9 	ldp	x29, x30, [sp, #32]
100002780: ff c3 00 91 	add	sp, sp, #48
100002784: c0 03 5f d6 	ret

0000000100002788 <__ZNKSt3__112basic_stringIcNS_11char_traitsIcEENS_9allocatorIcEEE9__is_longEv>:
100002788: ff 83 00 d1 	sub	sp, sp, #32
10000278c: fd 7b 01 a9 	stp	x29, x30, [sp, #16]
100002790: fd 43 00 91 	add	x29, sp, #16
100002794: e0 07 00 f9 	str	x0, [sp, #8]
100002798: e0 07 40 f9 	ldr	x0, [sp, #8]
10000279c: 1c 00 00 94 	bl	0x10000280c <__ZNKSt3__117__compressed_pairINS_12basic_stringIcNS_11char_traitsIcEENS_9allocatorIcEEE5__repES5_E5firstEv>
1000027a0: 08 5c 40 39 	ldrb	w8, [x0, #23]
1000027a4: 08 01 79 f2 	ands	x8, x8, #0x80
1000027a8: e8 07 9f 1a 	cset	w8, ne
1000027ac: 00 01 00 12 	and	w0, w8, #0x1
1000027b0: fd 7b 41 a9 	ldp	x29, x30, [sp, #16]
1000027b4: ff 83 00 91 	add	sp, sp, #32
1000027b8: c0 03 5f d6 	ret

00000001000027bc <__ZNKSt3__112basic_stringIcNS_11char_traitsIcEENS_9allocatorIcEEE18__get_long_pointerEv>:
1000027bc: ff 83 00 d1 	sub	sp, sp, #32
1000027c0: fd 7b 01 a9 	stp	x29, x30, [sp, #16]
1000027c4: fd 43 00 91 	add	x29, sp, #16
1000027c8: e0 07 00 f9 	str	x0, [sp, #8]
1000027cc: e0 07 40 f9 	ldr	x0, [sp, #8]
1000027d0: 0f 00 00 94 	bl	0x10000280c <__ZNKSt3__117__compressed_pairINS_12basic_stringIcNS_11char_traitsIcEENS_9allocatorIcEEE5__repES5_E5firstEv>
1000027d4: 00 00 40 f9 	ldr	x0, [x0]
1000027d8: fd 7b 41 a9 	ldp	x29, x30, [sp, #16]
1000027dc: ff 83 00 91 	add	sp, sp, #32
1000027e0: c0 03 5f d6 	ret

00000001000027e4 <__ZNKSt3__112basic_stringIcNS_11char_traitsIcEENS_9allocatorIcEEE19__get_short_pointerEv>:
1000027e4: ff 83 00 d1 	sub	sp, sp, #32
1000027e8: fd 7b 01 a9 	stp	x29, x30, [sp, #16]
1000027ec: fd 43 00 91 	add	x29, sp, #16
1000027f0: e0 07 00 f9 	str	x0, [sp, #8]
1000027f4: e0 07 40 f9 	ldr	x0, [sp, #8]
1000027f8: 05 00 00 94 	bl	0x10000280c <__ZNKSt3__117__compressed_pairINS_12basic_stringIcNS_11char_traitsIcEENS_9allocatorIcEEE5__repES5_E5firstEv>
1000027fc: 12 00 00 94 	bl	0x100002844 <__ZNSt3__114pointer_traitsIPKcE10pointer_toERS1_>
100002800: fd 7b 41 a9 	ldp	x29, x30, [sp, #16]
100002804: ff 83 00 91 	add	sp, sp, #32
100002808: c0 03 5f d6 	ret

000000010000280c <__ZNKSt3__117__compressed_pairINS_12basic_stringIcNS_11char_traitsIcEENS_9allocatorIcEEE5__repES5_E5firstEv>:
10000280c: ff 83 00 d1 	sub	sp, sp, #32
100002810: fd 7b 01 a9 	stp	x29, x30, [sp, #16]
100002814: fd 43 00 91 	add	x29, sp, #16
100002818: e0 07 00 f9 	str	x0, [sp, #8]
10000281c: e0 07 40 f9 	ldr	x0, [sp, #8]
100002820: 04 00 00 94 	bl	0x100002830 <__ZNKSt3__122__compressed_pair_elemINS_12basic_stringIcNS_11char_traitsIcEENS_9allocatorIcEEE5__repELi0ELb0EE5__getEv>
100002824: fd 7b 41 a9 	ldp	x29, x30, [sp, #16]
100002828: ff 83 00 91 	add	sp, sp, #32
10000282c: c0 03 5f d6 	ret

0000000100002830 <__ZNKSt3__122__compressed_pair_elemINS_12basic_stringIcNS_11char_traitsIcEENS_9allocatorIcEEE5__repELi0ELb0EE5__getEv>:
100002830: ff 43 00 d1 	sub	sp, sp, #16
100002834: e0 07 00 f9 	str	x0, [sp, #8]
100002838: e0 07 40 f9 	ldr	x0, [sp, #8]
10000283c: ff 43 00 91 	add	sp, sp, #16
100002840: c0 03 5f d6 	ret

0000000100002844 <__ZNSt3__114pointer_traitsIPKcE10pointer_toERS1_>:
100002844: ff 83 00 d1 	sub	sp, sp, #32
100002848: fd 7b 01 a9 	stp	x29, x30, [sp, #16]
10000284c: fd 43 00 91 	add	x29, sp, #16
100002850: e0 07 00 f9 	str	x0, [sp, #8]
100002854: e0 07 40 f9 	ldr	x0, [sp, #8]
100002858: 04 00 00 94 	bl	0x100002868 <__ZNSt3__1L9addressofIKcEEPT_RS2_>
10000285c: fd 7b 41 a9 	ldp	x29, x30, [sp, #16]
100002860: ff 83 00 91 	add	sp, sp, #32
100002864: c0 03 5f d6 	ret

0000000100002868 <__ZNSt3__1L9addressofIKcEEPT_RS2_>:
100002868: ff 43 00 d1 	sub	sp, sp, #16
10000286c: e0 07 00 f9 	str	x0, [sp, #8]
100002870: e0 07 40 f9 	ldr	x0, [sp, #8]
100002874: ff 43 00 91 	add	sp, sp, #16
100002878: c0 03 5f d6 	ret

000000010000287c <__ZNSt3__119ostreambuf_iteratorIcNS_11char_traitsIcEEEC2ERNS_13basic_ostreamIcS2_EE>:
10000287c: ff c3 00 d1 	sub	sp, sp, #48
100002880: fd 7b 02 a9 	stp	x29, x30, [sp, #32]
100002884: fd 83 00 91 	add	x29, sp, #32
100002888: a0 83 1f f8 	stur	x0, [x29, #-8]
10000288c: e1 0b 00 f9 	str	x1, [sp, #16]
100002890: a8 83 5f f8 	ldur	x8, [x29, #-8]
100002894: e8 03 00 f9 	str	x8, [sp]
100002898: e8 0b 40 f9 	ldr	x8, [sp, #16]
10000289c: 09 01 40 f9 	ldr	x9, [x8]
1000028a0: 29 81 5e f8 	ldur	x9, [x9, #-24]
1000028a4: 00 01 09 8b 	add	x0, x8, x9
1000028a8: 0a 00 00 94 	bl	0x1000028d0 <__ZNKSt3__19basic_iosIcNS_11char_traitsIcEEE5rdbufEv>
1000028ac: e0 07 00 f9 	str	x0, [sp, #8]
1000028b0: 01 00 00 14 	b	0x1000028b4 <__ZNSt3__119ostreambuf_iteratorIcNS_11char_traitsIcEEEC2ERNS_13basic_ostreamIcS2_EE+0x38>
1000028b4: e0 03 40 f9 	ldr	x0, [sp]
1000028b8: e8 07 40 f9 	ldr	x8, [sp, #8]
1000028bc: 08 00 00 f9 	str	x8, [x0]
1000028c0: fd 7b 42 a9 	ldp	x29, x30, [sp, #32]
1000028c4: ff c3 00 91 	add	sp, sp, #48
1000028c8: c0 03 5f d6 	ret
1000028cc: a9 fd ff 97 	bl	0x100001f70 <___clang_call_terminate>

00000001000028d0 <__ZNKSt3__19basic_iosIcNS_11char_traitsIcEEE5rdbufEv>:
1000028d0: ff 83 00 d1 	sub	sp, sp, #32
1000028d4: fd 7b 01 a9 	stp	x29, x30, [sp, #16]
1000028d8: fd 43 00 91 	add	x29, sp, #16
1000028dc: e0 07 00 f9 	str	x0, [sp, #8]
1000028e0: e0 07 40 f9 	ldr	x0, [sp, #8]
1000028e4: 04 00 00 94 	bl	0x1000028f4 <__ZNKSt3__18ios_base5rdbufEv>
1000028e8: fd 7b 41 a9 	ldp	x29, x30, [sp, #16]
1000028ec: ff 83 00 91 	add	sp, sp, #32
1000028f0: c0 03 5f d6 	ret

00000001000028f4 <__ZNKSt3__18ios_base5rdbufEv>:
1000028f4: ff 43 00 d1 	sub	sp, sp, #16
1000028f8: e0 07 00 f9 	str	x0, [sp, #8]
1000028fc: e8 07 40 f9 	ldr	x8, [sp, #8]
100002900: 00 15 40 f9 	ldr	x0, [x8, #40]
100002904: ff 43 00 91 	add	sp, sp, #16
100002908: c0 03 5f d6 	ret

000000010000290c <__ZNSt3__111char_traitsIcE11eq_int_typeEii>:
10000290c: ff 43 00 d1 	sub	sp, sp, #16
100002910: e0 0f 00 b9 	str	w0, [sp, #12]
100002914: e1 0b 00 b9 	str	w1, [sp, #8]
100002918: e8 0f 40 b9 	ldr	w8, [sp, #12]
10000291c: e9 0b 40 b9 	ldr	w9, [sp, #8]
100002920: 08 01 09 6b 	subs	w8, w8, w9
100002924: e8 17 9f 1a 	cset	w8, eq
100002928: 00 01 00 12 	and	w0, w8, #0x1
10000292c: ff 43 00 91 	add	sp, sp, #16
100002930: c0 03 5f d6 	ret

0000000100002934 <__ZNSt3__111char_traitsIcE3eofEv>:
100002934: 00 00 80 12 	mov	w0, #-1
100002938: c0 03 5f d6 	ret

000000010000293c <__ZNKSt3__19basic_iosIcNS_11char_traitsIcEEE5widenEc>:
10000293c: ff 43 01 d1 	sub	sp, sp, #80
100002940: fd 7b 04 a9 	stp	x29, x30, [sp, #64]
100002944: fd 03 01 91 	add	x29, sp, #64
100002948: a0 83 1f f8 	stur	x0, [x29, #-8]
10000294c: a1 73 1f 38 	sturb	w1, [x29, #-9]
100002950: a0 83 5f f8 	ldur	x0, [x29, #-8]
100002954: a8 63 00 d1 	sub	x8, x29, #24
100002958: e8 07 00 f9 	str	x8, [sp, #8]
10000295c: 7b 04 00 94 	bl	0x100003b48 <_strlen+0x100003b48>
100002960: e0 07 40 f9 	ldr	x0, [sp, #8]
100002964: 17 00 00 94 	bl	0x1000029c0 <__ZNSt3__1L9use_facetINS_5ctypeIcEEEERKT_RKNS_6localeE>
100002968: e0 0b 00 f9 	str	x0, [sp, #16]
10000296c: 01 00 00 14 	b	0x100002970 <__ZNKSt3__19basic_iosIcNS_11char_traitsIcEEE5widenEc+0x34>
100002970: e0 0b 40 f9 	ldr	x0, [sp, #16]
100002974: a1 73 df 38 	ldursb	w1, [x29, #-9]
100002978: 1d 00 00 94 	bl	0x1000029ec <__ZNKSt3__15ctypeIcE5widenEc>
10000297c: e0 07 00 b9 	str	w0, [sp, #4]
100002980: 01 00 00 14 	b	0x100002984 <__ZNKSt3__19basic_iosIcNS_11char_traitsIcEEE5widenEc+0x48>
100002984: a0 63 00 d1 	sub	x0, x29, #24
100002988: a3 04 00 94 	bl	0x100003c14 <_strlen+0x100003c14>
10000298c: e8 07 40 b9 	ldr	w8, [sp, #4]
100002990: 00 1d 00 13 	sxtb	w0, w8
100002994: fd 7b 44 a9 	ldp	x29, x30, [sp, #64]
100002998: ff 43 01 91 	add	sp, sp, #80
10000299c: c0 03 5f d6 	ret
1000029a0: e8 03 01 aa 	mov	x8, x1
1000029a4: e0 13 00 f9 	str	x0, [sp, #32]
1000029a8: e8 1f 00 b9 	str	w8, [sp, #28]
1000029ac: a0 63 00 d1 	sub	x0, x29, #24
1000029b0: 99 04 00 94 	bl	0x100003c14 <_strlen+0x100003c14>
1000029b4: 01 00 00 14 	b	0x1000029b8 <__ZNKSt3__19basic_iosIcNS_11char_traitsIcEEE5widenEc+0x7c>
1000029b8: e0 13 40 f9 	ldr	x0, [sp, #32]
1000029bc: 5d 04 00 94 	bl	0x100003b30 <_strlen+0x100003b30>

00000001000029c0 <__ZNSt3__1L9use_facetINS_5ctypeIcEEEERKT_RKNS_6localeE>:
1000029c0: ff 83 00 d1 	sub	sp, sp, #32
1000029c4: fd 7b 01 a9 	stp	x29, x30, [sp, #16]
1000029c8: fd 43 00 91 	add	x29, sp, #16
1000029cc: e0 07 00 f9 	str	x0, [sp, #8]
1000029d0: e0 07 40 f9 	ldr	x0, [sp, #8]
1000029d4: 01 00 00 d0 	adrp	x1, 0x100004000 <__ZNSt3__1L9use_facetINS_5ctypeIcEEEERKT_RKNS_6localeE+0x1c>
1000029d8: 21 48 40 f9 	ldr	x1, [x1, #144]
1000029dc: 58 04 00 94 	bl	0x100003b3c <_strlen+0x100003b3c>
1000029e0: fd 7b 41 a9 	ldp	x29, x30, [sp, #16]
1000029e4: ff 83 00 91 	add	sp, sp, #32
1000029e8: c0 03 5f d6 	ret

00000001000029ec <__ZNKSt3__15ctypeIcE5widenEc>:
1000029ec: ff 83 00 d1 	sub	sp, sp, #32
1000029f0: fd 7b 01 a9 	stp	x29, x30, [sp, #16]
1000029f4: fd 43 00 91 	add	x29, sp, #16
1000029f8: e0 07 00 f9 	str	x0, [sp, #8]
1000029fc: e1 1f 00 39 	strb	w1, [sp, #7]
100002a00: e0 07 40 f9 	ldr	x0, [sp, #8]
100002a04: e1 1f c0 39 	ldrsb	w1, [sp, #7]
100002a08: 08 00 40 f9 	ldr	x8, [x0]
100002a0c: 08 1d 40 f9 	ldr	x8, [x8, #56]
100002a10: 00 01 3f d6 	blr	x8
100002a14: 00 1c 00 13 	sxtb	w0, w0
100002a18: fd 7b 41 a9 	ldp	x29, x30, [sp, #16]
100002a1c: ff 83 00 91 	add	sp, sp, #32
100002a20: c0 03 5f d6 	ret

0000000100002a24 <__ZNSt3__18ios_base8setstateEj>:
100002a24: ff 83 00 d1 	sub	sp, sp, #32
100002a28: fd 7b 01 a9 	stp	x29, x30, [sp, #16]
100002a2c: fd 43 00 91 	add	x29, sp, #16
100002a30: e0 07 00 f9 	str	x0, [sp, #8]
100002a34: e1 07 00 b9 	str	w1, [sp, #4]
100002a38: e0 07 40 f9 	ldr	x0, [sp, #8]
100002a3c: 08 20 40 b9 	ldr	w8, [x0, #32]
100002a40: e9 07 40 b9 	ldr	w9, [sp, #4]
100002a44: 01 01 09 2a 	orr	w1, w8, w9
100002a48: 7f 04 00 94 	bl	0x100003c44 <_strlen+0x100003c44>
100002a4c: fd 7b 41 a9 	ldp	x29, x30, [sp, #16]
100002a50: ff 83 00 91 	add	sp, sp, #32
100002a54: c0 03 5f d6 	ret

0000000100002a58 <__ZNSt3__16threadC2IRFviEJRiEvEEOT_DpOT0_>:
100002a58: ff 43 02 d1 	sub	sp, sp, #144
100002a5c: fd 7b 08 a9 	stp	x29, x30, [sp, #128]
100002a60: fd 03 02 91 	add	x29, sp, #128
100002a64: a0 83 1f f8 	stur	x0, [x29, #-8]
100002a68: a1 03 1f f8 	stur	x1, [x29, #-16]
100002a6c: a2 83 1e f8 	stur	x2, [x29, #-24]
100002a70: a8 83 5f f8 	ldur	x8, [x29, #-8]
100002a74: e8 17 00 f9 	str	x8, [sp, #40]
100002a78: 00 01 80 d2 	mov	x0, #8
100002a7c: 7e 04 00 94 	bl	0x100003c74 <_strlen+0x100003c74>
100002a80: e0 1b 00 f9 	str	x0, [sp, #48]
100002a84: 4c 04 00 94 	bl	0x100003bb4 <_strlen+0x100003bb4>
100002a88: 01 00 00 14 	b	0x100002a8c <__ZNSt3__16threadC2IRFviEJRiEvEEOT_DpOT0_+0x34>
100002a8c: e1 1b 40 f9 	ldr	x1, [sp, #48]
100002a90: a0 83 00 d1 	sub	x0, x29, #32
100002a94: 5b 00 00 94 	bl	0x100002c00 <__ZNSt3__110unique_ptrINS_15__thread_structENS_14default_deleteIS1_EEEC1ILb1EvEEPS1_>
100002a98: 00 03 80 d2 	mov	x0, #24
100002a9c: 76 04 00 94 	bl	0x100003c74 <_strlen+0x100003c74>
100002aa0: e0 13 00 f9 	str	x0, [sp, #32]
100002aa4: 01 00 00 14 	b	0x100002aa8 <__ZNSt3__16threadC2IRFviEJRiEvEEOT_DpOT0_+0x50>
100002aa8: a0 83 00 d1 	sub	x0, x29, #32
100002aac: 62 00 00 94 	bl	0x100002c34 <__ZNSt3__1L4moveIRNS_10unique_ptrINS_15__thread_structENS_14default_deleteIS2_EEEEEEONS_16remove_referenceIT_E4typeEOS8_>
100002ab0: e0 0b 00 f9 	str	x0, [sp, #16]
100002ab4: a0 03 5f f8 	ldur	x0, [x29, #-16]
100002ab8: 6d 00 00 94 	bl	0x100002c6c <__ZNSt3__1L7forwardIRFviEEEOT_RNS_16remove_referenceIS3_E4typeE>
100002abc: 63 00 00 94 	bl	0x100002c48 <__ZNSt3__1L12__decay_copyIRFviEEENS_5decayIT_E4typeEOS4_>
100002ac0: e0 0f 00 f9 	str	x0, [sp, #24]
100002ac4: 01 00 00 14 	b	0x100002ac8 <__ZNSt3__16threadC2IRFviEJRiEvEEOT_DpOT0_+0x70>
100002ac8: e8 0f 40 f9 	ldr	x8, [sp, #24]
100002acc: e8 23 00 f9 	str	x8, [sp, #64]
100002ad0: a0 83 5e f8 	ldur	x0, [x29, #-24]
100002ad4: 75 00 00 94 	bl	0x100002ca8 <__ZNSt3__1L7forwardIRiEEOT_RNS_16remove_referenceIS2_E4typeE>
100002ad8: 6a 00 00 94 	bl	0x100002c80 <__ZNSt3__1L12__decay_copyIRiEENS_5decayIT_E4typeEOS3_>
100002adc: e0 0f 00 b9 	str	w0, [sp, #12]
100002ae0: 01 00 00 14 	b	0x100002ae4 <__ZNSt3__16threadC2IRFviEJRiEvEEOT_DpOT0_+0x8c>
100002ae4: e0 13 40 f9 	ldr	x0, [sp, #32]
100002ae8: e1 0b 40 f9 	ldr	x1, [sp, #16]
100002aec: e8 0f 40 b9 	ldr	w8, [sp, #12]
100002af0: e3 f3 00 91 	add	x3, sp, #60
100002af4: e8 3f 00 b9 	str	w8, [sp, #60]
100002af8: e2 03 01 91 	add	x2, sp, #64
100002afc: 70 00 00 94 	bl	0x100002cbc <__ZNSt3__15tupleIJNS_10unique_ptrINS_15__thread_structENS_14default_deleteIS2_EEEEPFviEiEEC1IJS5_S7_iELi0EEEDpOT_>
100002b00: e1 13 40 f9 	ldr	x1, [sp, #32]
100002b04: a0 e3 00 d1 	sub	x0, x29, #56
100002b08: e0 03 00 f9 	str	x0, [sp]
100002b0c: 7d 00 00 94 	bl	0x100002d00 <__ZNSt3__110unique_ptrINS_5tupleIJNS0_INS_15__thread_structENS_14default_deleteIS2_EEEEPFviEiEEENS3_IS8_EEEC1ILb1EvEEPS8_>
100002b10: e0 03 40 f9 	ldr	x0, [sp]
100002b14: ba 00 00 94 	bl	0x100002dfc <__ZNKSt3__110unique_ptrINS_5tupleIJNS0_INS_15__thread_structENS_14default_deleteIS2_EEEEPFviEiEEENS3_IS8_EEE3getEv>
100002b18: e2 03 00 aa 	mov	x2, x0
100002b1c: e0 17 40 f9 	ldr	x0, [sp, #40]
100002b20: 01 00 00 90 	adrp	x1, 0x100002000 <__ZNSt3__16threadC2IRFviEJRiEvEEOT_DpOT0_+0xc8>
100002b24: 21 b0 35 91 	add	x1, x1, #3436
100002b28: 83 00 00 94 	bl	0x100002d34 <__ZNSt3__1L22__libcpp_thread_createEPP17_opaque_pthread_tPFPvS3_ES3_>
100002b2c: e0 0b 00 b9 	str	w0, [sp, #8]
100002b30: 01 00 00 14 	b	0x100002b34 <__ZNSt3__16threadC2IRFviEJRiEvEEOT_DpOT0_+0xdc>
100002b34: e8 0b 40 b9 	ldr	w8, [sp, #8]
100002b38: e8 3b 00 b9 	str	w8, [sp, #56]
100002b3c: e8 3b 40 b9 	ldr	w8, [sp, #56]
100002b40: a8 03 00 35 	cbnz	w8, 0x100002bb4 <__ZNSt3__16threadC2IRFviEJRiEvEEOT_DpOT0_+0x15c>
100002b44: 01 00 00 14 	b	0x100002b48 <__ZNSt3__16threadC2IRFviEJRiEvEEOT_DpOT0_+0xf0>
100002b48: a0 e3 00 d1 	sub	x0, x29, #56
100002b4c: b6 00 00 94 	bl	0x100002e24 <__ZNSt3__110unique_ptrINS_5tupleIJNS0_INS_15__thread_structENS_14default_deleteIS2_EEEEPFviEiEEENS3_IS8_EEE7releaseEv>
100002b50: 1f 00 00 14 	b	0x100002bcc <__ZNSt3__16threadC2IRFviEJRiEvEEOT_DpOT0_+0x174>
100002b54: e9 03 00 aa 	mov	x9, x0
100002b58: e0 1b 40 f9 	ldr	x0, [sp, #48]
100002b5c: e8 03 01 aa 	mov	x8, x1
100002b60: a9 83 1d f8 	stur	x9, [x29, #-40]
100002b64: a8 43 1d b8 	stur	w8, [x29, #-44]
100002b68: 40 04 00 94 	bl	0x100003c68 <_strlen+0x100003c68>
100002b6c: 23 00 00 14 	b	0x100002bf8 <__ZNSt3__16threadC2IRFviEJRiEvEEOT_DpOT0_+0x1a0>
100002b70: e8 03 01 aa 	mov	x8, x1
100002b74: a0 83 1d f8 	stur	x0, [x29, #-40]
100002b78: a8 43 1d b8 	stur	w8, [x29, #-44]
100002b7c: 1c 00 00 14 	b	0x100002bec <__ZNSt3__16threadC2IRFviEJRiEvEEOT_DpOT0_+0x194>
100002b80: e9 03 00 aa 	mov	x9, x0
100002b84: e0 13 40 f9 	ldr	x0, [sp, #32]
100002b88: e8 03 01 aa 	mov	x8, x1
100002b8c: a9 83 1d f8 	stur	x9, [x29, #-40]
100002b90: a8 43 1d b8 	stur	w8, [x29, #-44]
100002b94: 35 04 00 94 	bl	0x100003c68 <_strlen+0x100003c68>
100002b98: 15 00 00 14 	b	0x100002bec <__ZNSt3__16threadC2IRFviEJRiEvEEOT_DpOT0_+0x194>
100002b9c: e8 03 01 aa 	mov	x8, x1
100002ba0: a0 83 1d f8 	stur	x0, [x29, #-40]
100002ba4: a8 43 1d b8 	stur	w8, [x29, #-44]
100002ba8: a0 e3 00 d1 	sub	x0, x29, #56
100002bac: af 00 00 94 	bl	0x100002e68 <__ZNSt3__110unique_ptrINS_5tupleIJNS0_INS_15__thread_structENS_14default_deleteIS2_EEEEPFviEiEEENS3_IS8_EEED1Ev>
100002bb0: 0f 00 00 14 	b	0x100002bec <__ZNSt3__16threadC2IRFviEJRiEvEEOT_DpOT0_+0x194>
100002bb4: e0 3b 40 b9 	ldr	w0, [sp, #56]
100002bb8: 01 00 00 b0 	adrp	x1, 0x100003000 <__ZNSt3__16threadC2IRFviEJRiEvEEOT_DpOT0_+0x164>
100002bbc: 21 74 37 91 	add	x1, x1, #3549
100002bc0: 06 04 00 94 	bl	0x100003bd8 <_strlen+0x100003bd8>
100002bc4: 01 00 00 14 	b	0x100002bc8 <__ZNSt3__16threadC2IRFviEJRiEvEEOT_DpOT0_+0x170>
100002bc8: 20 00 20 d4 	brk	#0x1
100002bcc: a0 e3 00 d1 	sub	x0, x29, #56
100002bd0: a6 00 00 94 	bl	0x100002e68 <__ZNSt3__110unique_ptrINS_5tupleIJNS0_INS_15__thread_structENS_14default_deleteIS2_EEEEPFviEiEEENS3_IS8_EEED1Ev>
100002bd4: a0 83 00 d1 	sub	x0, x29, #32
100002bd8: af 00 00 94 	bl	0x100002e94 <__ZNSt3__110unique_ptrINS_15__thread_structENS_14default_deleteIS1_EEED1Ev>
100002bdc: e0 17 40 f9 	ldr	x0, [sp, #40]
100002be0: fd 7b 48 a9 	ldp	x29, x30, [sp, #128]
100002be4: ff 43 02 91 	add	sp, sp, #144
100002be8: c0 03 5f d6 	ret
100002bec: a0 83 00 d1 	sub	x0, x29, #32
100002bf0: a9 00 00 94 	bl	0x100002e94 <__ZNSt3__110unique_ptrINS_15__thread_structENS_14default_deleteIS1_EEED1Ev>
100002bf4: 01 00 00 14 	b	0x100002bf8 <__ZNSt3__16threadC2IRFviEJRiEvEEOT_DpOT0_+0x1a0>
100002bf8: a0 83 5d f8 	ldur	x0, [x29, #-40]
100002bfc: cd 03 00 94 	bl	0x100003b30 <_strlen+0x100003b30>

0000000100002c00 <__ZNSt3__110unique_ptrINS_15__thread_structENS_14default_deleteIS1_EEEC1ILb1EvEEPS1_>:
100002c00: ff c3 00 d1 	sub	sp, sp, #48
100002c04: fd 7b 02 a9 	stp	x29, x30, [sp, #32]
100002c08: fd 83 00 91 	add	x29, sp, #32
100002c0c: a0 83 1f f8 	stur	x0, [x29, #-8]
100002c10: e1 0b 00 f9 	str	x1, [sp, #16]
100002c14: a0 83 5f f8 	ldur	x0, [x29, #-8]
100002c18: e0 07 00 f9 	str	x0, [sp, #8]
100002c1c: e1 0b 40 f9 	ldr	x1, [sp, #16]
100002c20: a8 00 00 94 	bl	0x100002ec0 <__ZNSt3__110unique_ptrINS_15__thread_structENS_14default_deleteIS1_EEEC2ILb1EvEEPS1_>
100002c24: e0 07 40 f9 	ldr	x0, [sp, #8]
100002c28: fd 7b 42 a9 	ldp	x29, x30, [sp, #32]
100002c2c: ff c3 00 91 	add	sp, sp, #48
100002c30: c0 03 5f d6 	ret

0000000100002c34 <__ZNSt3__1L4moveIRNS_10unique_ptrINS_15__thread_structENS_14default_deleteIS2_EEEEEEONS_16remove_referenceIT_E4typeEOS8_>:
100002c34: ff 43 00 d1 	sub	sp, sp, #16
100002c38: e0 07 00 f9 	str	x0, [sp, #8]
100002c3c: e0 07 40 f9 	ldr	x0, [sp, #8]
100002c40: ff 43 00 91 	add	sp, sp, #16
100002c44: c0 03 5f d6 	ret

0000000100002c48 <__ZNSt3__1L12__decay_copyIRFviEEENS_5decayIT_E4typeEOS4_>:
100002c48: ff 83 00 d1 	sub	sp, sp, #32
100002c4c: fd 7b 01 a9 	stp	x29, x30, [sp, #16]
100002c50: fd 43 00 91 	add	x29, sp, #16
100002c54: e0 07 00 f9 	str	x0, [sp, #8]
100002c58: e0 07 40 f9 	ldr	x0, [sp, #8]
100002c5c: 04 00 00 94 	bl	0x100002c6c <__ZNSt3__1L7forwardIRFviEEEOT_RNS_16remove_referenceIS3_E4typeE>
100002c60: fd 7b 41 a9 	ldp	x29, x30, [sp, #16]
100002c64: ff 83 00 91 	add	sp, sp, #32
100002c68: c0 03 5f d6 	ret

0000000100002c6c <__ZNSt3__1L7forwardIRFviEEEOT_RNS_16remove_referenceIS3_E4typeE>:
100002c6c: ff 43 00 d1 	sub	sp, sp, #16
100002c70: e0 07 00 f9 	str	x0, [sp, #8]
100002c74: e0 07 40 f9 	ldr	x0, [sp, #8]
100002c78: ff 43 00 91 	add	sp, sp, #16
100002c7c: c0 03 5f d6 	ret

0000000100002c80 <__ZNSt3__1L12__decay_copyIRiEENS_5decayIT_E4typeEOS3_>:
100002c80: ff 83 00 d1 	sub	sp, sp, #32
100002c84: fd 7b 01 a9 	stp	x29, x30, [sp, #16]
100002c88: fd 43 00 91 	add	x29, sp, #16
100002c8c: e0 07 00 f9 	str	x0, [sp, #8]
100002c90: e0 07 40 f9 	ldr	x0, [sp, #8]
100002c94: 05 00 00 94 	bl	0x100002ca8 <__ZNSt3__1L7forwardIRiEEOT_RNS_16remove_referenceIS2_E4typeE>
100002c98: 00 00 40 b9 	ldr	w0, [x0]
100002c9c: fd 7b 41 a9 	ldp	x29, x30, [sp, #16]
100002ca0: ff 83 00 91 	add	sp, sp, #32
100002ca4: c0 03 5f d6 	ret

0000000100002ca8 <__ZNSt3__1L7forwardIRiEEOT_RNS_16remove_referenceIS2_E4typeE>:
100002ca8: ff 43 00 d1 	sub	sp, sp, #16
100002cac: e0 07 00 f9 	str	x0, [sp, #8]
100002cb0: e0 07 40 f9 	ldr	x0, [sp, #8]
100002cb4: ff 43 00 91 	add	sp, sp, #16
100002cb8: c0 03 5f d6 	ret

0000000100002cbc <__ZNSt3__15tupleIJNS_10unique_ptrINS_15__thread_structENS_14default_deleteIS2_EEEEPFviEiEEC1IJS5_S7_iELi0EEEDpOT_>:
100002cbc: ff 03 01 d1 	sub	sp, sp, #64
100002cc0: fd 7b 03 a9 	stp	x29, x30, [sp, #48]
100002cc4: fd c3 00 91 	add	x29, sp, #48
100002cc8: a0 83 1f f8 	stur	x0, [x29, #-8]
100002ccc: a1 03 1f f8 	stur	x1, [x29, #-16]
100002cd0: e2 0f 00 f9 	str	x2, [sp, #24]
100002cd4: e3 0b 00 f9 	str	x3, [sp, #16]
100002cd8: a0 83 5f f8 	ldur	x0, [x29, #-8]
100002cdc: e0 07 00 f9 	str	x0, [sp, #8]
100002ce0: a1 03 5f f8 	ldur	x1, [x29, #-16]
100002ce4: e2 0f 40 f9 	ldr	x2, [sp, #24]
100002ce8: e3 0b 40 f9 	ldr	x3, [sp, #16]
100002cec: c4 00 00 94 	bl	0x100002ffc <__ZNSt3__15tupleIJNS_10unique_ptrINS_15__thread_structENS_14default_deleteIS2_EEEEPFviEiEEC2IJS5_S7_iELi0EEEDpOT_>
100002cf0: e0 07 40 f9 	ldr	x0, [sp, #8]
100002cf4: fd 7b 43 a9 	ldp	x29, x30, [sp, #48]
100002cf8: ff 03 01 91 	add	sp, sp, #64
100002cfc: c0 03 5f d6 	ret

0000000100002d00 <__ZNSt3__110unique_ptrINS_5tupleIJNS0_INS_15__thread_structENS_14default_deleteIS2_EEEEPFviEiEEENS3_IS8_EEEC1ILb1EvEEPS8_>:
100002d00: ff c3 00 d1 	sub	sp, sp, #48
100002d04: fd 7b 02 a9 	stp	x29, x30, [sp, #32]
100002d08: fd 83 00 91 	add	x29, sp, #32
100002d0c: a0 83 1f f8 	stur	x0, [x29, #-8]
100002d10: e1 0b 00 f9 	str	x1, [sp, #16]
100002d14: a0 83 5f f8 	ldur	x0, [x29, #-8]
100002d18: e0 07 00 f9 	str	x0, [sp, #8]
100002d1c: e1 0b 40 f9 	ldr	x1, [sp, #16]
100002d20: e7 01 00 94 	bl	0x1000034bc <__ZNSt3__110unique_ptrINS_5tupleIJNS0_INS_15__thread_structENS_14default_deleteIS2_EEEEPFviEiEEENS3_IS8_EEEC2ILb1EvEEPS8_>
100002d24: e0 07 40 f9 	ldr	x0, [sp, #8]
100002d28: fd 7b 42 a9 	ldp	x29, x30, [sp, #32]
100002d2c: ff c3 00 91 	add	sp, sp, #48
100002d30: c0 03 5f d6 	ret

0000000100002d34 <__ZNSt3__1L22__libcpp_thread_createEPP17_opaque_pthread_tPFPvS3_ES3_>:
100002d34: ff c3 00 d1 	sub	sp, sp, #48
100002d38: fd 7b 02 a9 	stp	x29, x30, [sp, #32]
100002d3c: fd 83 00 91 	add	x29, sp, #32
100002d40: a0 83 1f f8 	stur	x0, [x29, #-8]
100002d44: e1 0b 00 f9 	str	x1, [sp, #16]
100002d48: e2 07 00 f9 	str	x2, [sp, #8]
100002d4c: a0 83 5f f8 	ldur	x0, [x29, #-8]
100002d50: e2 0b 40 f9 	ldr	x2, [sp, #16]
100002d54: e3 07 40 f9 	ldr	x3, [sp, #8]
100002d58: 01 00 80 d2 	mov	x1, #0
100002d5c: d5 03 00 94 	bl	0x100003cb0 <_strlen+0x100003cb0>
100002d60: fd 7b 42 a9 	ldp	x29, x30, [sp, #32]
100002d64: ff c3 00 91 	add	sp, sp, #48
100002d68: c0 03 5f d6 	ret

0000000100002d6c <__ZNSt3__1L14__thread_proxyINS_5tupleIJNS_10unique_ptrINS_15__thread_structENS_14default_deleteIS3_EEEEPFviEiEEEEEPvSA_>:
100002d6c: ff 03 01 d1 	sub	sp, sp, #64
100002d70: fd 7b 03 a9 	stp	x29, x30, [sp, #48]
100002d74: fd c3 00 91 	add	x29, sp, #48
100002d78: a0 83 1f f8 	stur	x0, [x29, #-8]
100002d7c: a1 83 5f f8 	ldur	x1, [x29, #-8]
100002d80: a0 43 00 d1 	sub	x0, x29, #16
100002d84: df ff ff 97 	bl	0x100002d00 <__ZNSt3__110unique_ptrINS_5tupleIJNS0_INS_15__thread_structENS_14default_deleteIS2_EEEEPFviEiEEENS3_IS8_EEEC1ILb1EvEEPS8_>
100002d88: 91 03 00 94 	bl	0x100003bcc <_strlen+0x100003bcc>
100002d8c: e0 07 00 f9 	str	x0, [sp, #8]
100002d90: 01 00 00 14 	b	0x100002d94 <__ZNSt3__1L14__thread_proxyINS_5tupleIJNS_10unique_ptrINS_15__thread_structENS_14default_deleteIS3_EEEEPFviEiEEEEEPvSA_+0x28>
100002d94: a0 43 00 d1 	sub	x0, x29, #16
100002d98: 19 00 00 94 	bl	0x100002dfc <__ZNKSt3__110unique_ptrINS_5tupleIJNS0_INS_15__thread_structENS_14default_deleteIS2_EEEEPFviEiEEENS3_IS8_EEE3getEv>
100002d9c: 23 02 00 94 	bl	0x100003628 <__ZNSt3__1L3getILm0EJNS_10unique_ptrINS_15__thread_structENS_14default_deleteIS2_EEEEPFviEiEEERNS_13tuple_elementIXT_ENS_5tupleIJDpT0_EEEE4typeERSC_>
100002da0: 45 01 00 94 	bl	0x1000032b4 <__ZNSt3__110unique_ptrINS_15__thread_structENS_14default_deleteIS1_EEE7releaseEv>
100002da4: e1 03 00 aa 	mov	x1, x0
100002da8: e0 07 40 f9 	ldr	x0, [sp, #8]
100002dac: 8e 03 00 94 	bl	0x100003be4 <_strlen+0x100003be4>
100002db0: 01 00 00 14 	b	0x100002db4 <__ZNSt3__1L14__thread_proxyINS_5tupleIJNS_10unique_ptrINS_15__thread_structENS_14default_deleteIS3_EEEEPFviEiEEEEEPvSA_+0x48>
100002db4: a0 43 00 d1 	sub	x0, x29, #16
100002db8: 11 00 00 94 	bl	0x100002dfc <__ZNKSt3__110unique_ptrINS_5tupleIJNS0_INS_15__thread_structENS_14default_deleteIS2_EEEEPFviEiEEENS3_IS8_EEE3getEv>
100002dbc: 24 02 00 94 	bl	0x10000364c <__ZNSt3__1L16__thread_executeINS_10unique_ptrINS_15__thread_structENS_14default_deleteIS2_EEEEPFviEJiEJLm2EEEEvRNS_5tupleIJT_T0_DpT1_EEENS_15__tuple_indicesIJXspT2_EEEE>
100002dc0: 01 00 00 14 	b	0x100002dc4 <__ZNSt3__1L14__thread_proxyINS_5tupleIJNS_10unique_ptrINS_15__thread_structENS_14default_deleteIS3_EEEEPFviEiEEEEEPvSA_+0x58>
100002dc4: a0 43 00 d1 	sub	x0, x29, #16
100002dc8: 28 00 00 94 	bl	0x100002e68 <__ZNSt3__110unique_ptrINS_5tupleIJNS0_INS_15__thread_structENS_14default_deleteIS2_EEEEPFviEiEEENS3_IS8_EEED1Ev>
100002dcc: 00 00 80 d2 	mov	x0, #0
100002dd0: fd 7b 43 a9 	ldp	x29, x30, [sp, #48]
100002dd4: ff 03 01 91 	add	sp, sp, #64
100002dd8: c0 03 5f d6 	ret
100002ddc: e8 03 01 aa 	mov	x8, x1
100002de0: e0 0f 00 f9 	str	x0, [sp, #24]
100002de4: e8 17 00 b9 	str	w8, [sp, #20]
100002de8: a0 43 00 d1 	sub	x0, x29, #16
100002dec: 1f 00 00 94 	bl	0x100002e68 <__ZNSt3__110unique_ptrINS_5tupleIJNS0_INS_15__thread_structENS_14default_deleteIS2_EEEEPFviEiEEENS3_IS8_EEED1Ev>
100002df0: 01 00 00 14 	b	0x100002df4 <__ZNSt3__1L14__thread_proxyINS_5tupleIJNS_10unique_ptrINS_15__thread_structENS_14default_deleteIS3_EEEEPFviEiEEEEEPvSA_+0x88>
100002df4: e0 0f 40 f9 	ldr	x0, [sp, #24]
100002df8: 4e 03 00 94 	bl	0x100003b30 <_strlen+0x100003b30>

0000000100002dfc <__ZNKSt3__110unique_ptrINS_5tupleIJNS0_INS_15__thread_structENS_14default_deleteIS2_EEEEPFviEiEEENS3_IS8_EEE3getEv>:
100002dfc: ff 83 00 d1 	sub	sp, sp, #32
100002e00: fd 7b 01 a9 	stp	x29, x30, [sp, #16]
100002e04: fd 43 00 91 	add	x29, sp, #16
100002e08: e0 07 00 f9 	str	x0, [sp, #8]
100002e0c: e0 07 40 f9 	ldr	x0, [sp, #8]
100002e10: 65 02 00 94 	bl	0x1000037a4 <__ZNKSt3__117__compressed_pairIPNS_5tupleIJNS_10unique_ptrINS_15__thread_structENS_14default_deleteIS3_EEEEPFviEiEEENS4_IS9_EEE5firstEv>
100002e14: 00 00 40 f9 	ldr	x0, [x0]
100002e18: fd 7b 41 a9 	ldp	x29, x30, [sp, #16]
100002e1c: ff 83 00 91 	add	sp, sp, #32
100002e20: c0 03 5f d6 	ret

0000000100002e24 <__ZNSt3__110unique_ptrINS_5tupleIJNS0_INS_15__thread_structENS_14default_deleteIS2_EEEEPFviEiEEENS3_IS8_EEE7releaseEv>:
100002e24: ff c3 00 d1 	sub	sp, sp, #48
100002e28: fd 7b 02 a9 	stp	x29, x30, [sp, #32]
100002e2c: fd 83 00 91 	add	x29, sp, #32
100002e30: a0 83 1f f8 	stur	x0, [x29, #-8]
100002e34: a0 83 5f f8 	ldur	x0, [x29, #-8]
100002e38: e0 07 00 f9 	str	x0, [sp, #8]
100002e3c: 68 02 00 94 	bl	0x1000037dc <__ZNSt3__117__compressed_pairIPNS_5tupleIJNS_10unique_ptrINS_15__thread_structENS_14default_deleteIS3_EEEEPFviEiEEENS4_IS9_EEE5firstEv>
100002e40: e8 03 00 aa 	mov	x8, x0
100002e44: e0 07 40 f9 	ldr	x0, [sp, #8]
100002e48: 08 01 40 f9 	ldr	x8, [x8]
100002e4c: e8 0b 00 f9 	str	x8, [sp, #16]
100002e50: 63 02 00 94 	bl	0x1000037dc <__ZNSt3__117__compressed_pairIPNS_5tupleIJNS_10unique_ptrINS_15__thread_structENS_14default_deleteIS3_EEEEPFviEiEEENS4_IS9_EEE5firstEv>
100002e54: 1f 00 00 f9 	str	xzr, [x0]
100002e58: e0 0b 40 f9 	ldr	x0, [sp, #16]
100002e5c: fd 7b 42 a9 	ldp	x29, x30, [sp, #32]
100002e60: ff c3 00 91 	add	sp, sp, #48
100002e64: c0 03 5f d6 	ret

0000000100002e68 <__ZNSt3__110unique_ptrINS_5tupleIJNS0_INS_15__thread_structENS_14default_deleteIS2_EEEEPFviEiEEENS3_IS8_EEED1Ev>:
100002e68: ff 83 00 d1 	sub	sp, sp, #32
100002e6c: fd 7b 01 a9 	stp	x29, x30, [sp, #16]
100002e70: fd 43 00 91 	add	x29, sp, #16
100002e74: e0 07 00 f9 	str	x0, [sp, #8]
100002e78: e0 07 40 f9 	ldr	x0, [sp, #8]
100002e7c: e0 03 00 f9 	str	x0, [sp]
100002e80: 65 02 00 94 	bl	0x100003814 <__ZNSt3__110unique_ptrINS_5tupleIJNS0_INS_15__thread_structENS_14default_deleteIS2_EEEEPFviEiEEENS3_IS8_EEED2Ev>
100002e84: e0 03 40 f9 	ldr	x0, [sp]
100002e88: fd 7b 41 a9 	ldp	x29, x30, [sp, #16]
100002e8c: ff 83 00 91 	add	sp, sp, #32
100002e90: c0 03 5f d6 	ret

0000000100002e94 <__ZNSt3__110unique_ptrINS_15__thread_structENS_14default_deleteIS1_EEED1Ev>:
100002e94: ff 83 00 d1 	sub	sp, sp, #32
100002e98: fd 7b 01 a9 	stp	x29, x30, [sp, #16]
100002e9c: fd 43 00 91 	add	x29, sp, #16
100002ea0: e0 07 00 f9 	str	x0, [sp, #8]
100002ea4: e0 07 40 f9 	ldr	x0, [sp, #8]
100002ea8: e0 03 00 f9 	str	x0, [sp]
100002eac: d8 02 00 94 	bl	0x100003a0c <__ZNSt3__110unique_ptrINS_15__thread_structENS_14default_deleteIS1_EEED2Ev>
100002eb0: e0 03 40 f9 	ldr	x0, [sp]
100002eb4: fd 7b 41 a9 	ldp	x29, x30, [sp, #16]
100002eb8: ff 83 00 91 	add	sp, sp, #32
100002ebc: c0 03 5f d6 	ret

0000000100002ec0 <__ZNSt3__110unique_ptrINS_15__thread_structENS_14default_deleteIS1_EEEC2ILb1EvEEPS1_>:
100002ec0: ff c3 00 d1 	sub	sp, sp, #48
100002ec4: fd 7b 02 a9 	stp	x29, x30, [sp, #32]
100002ec8: fd 83 00 91 	add	x29, sp, #32
100002ecc: e8 03 01 aa 	mov	x8, x1
100002ed0: a0 83 1f f8 	stur	x0, [x29, #-8]
100002ed4: e1 43 00 91 	add	x1, sp, #16
100002ed8: e8 0b 00 f9 	str	x8, [sp, #16]
100002edc: a0 83 5f f8 	ldur	x0, [x29, #-8]
100002ee0: e0 03 00 f9 	str	x0, [sp]
100002ee4: e2 3f 00 91 	add	x2, sp, #15
100002ee8: 07 00 00 94 	bl	0x100002f04 <__ZNSt3__117__compressed_pairIPNS_15__thread_structENS_14default_deleteIS1_EEEC1IRS2_NS_18__default_init_tagEEEOT_OT0_>
100002eec: 01 00 00 14 	b	0x100002ef0 <__ZNSt3__110unique_ptrINS_15__thread_structENS_14default_deleteIS1_EEEC2ILb1EvEEPS1_+0x30>
100002ef0: e0 03 40 f9 	ldr	x0, [sp]
100002ef4: fd 7b 42 a9 	ldp	x29, x30, [sp, #32]
100002ef8: ff c3 00 91 	add	sp, sp, #48
100002efc: c0 03 5f d6 	ret
100002f00: 1c fc ff 97 	bl	0x100001f70 <___clang_call_terminate>

0000000100002f04 <__ZNSt3__117__compressed_pairIPNS_15__thread_structENS_14default_deleteIS1_EEEC1IRS2_NS_18__default_init_tagEEEOT_OT0_>:
100002f04: ff c3 00 d1 	sub	sp, sp, #48
100002f08: fd 7b 02 a9 	stp	x29, x30, [sp, #32]
100002f0c: fd 83 00 91 	add	x29, sp, #32
100002f10: a0 83 1f f8 	stur	x0, [x29, #-8]
100002f14: e1 0b 00 f9 	str	x1, [sp, #16]
100002f18: e2 07 00 f9 	str	x2, [sp, #8]
100002f1c: a0 83 5f f8 	ldur	x0, [x29, #-8]
100002f20: e0 03 00 f9 	str	x0, [sp]
100002f24: e1 0b 40 f9 	ldr	x1, [sp, #16]
100002f28: e2 07 40 f9 	ldr	x2, [sp, #8]
100002f2c: 05 00 00 94 	bl	0x100002f40 <__ZNSt3__117__compressed_pairIPNS_15__thread_structENS_14default_deleteIS1_EEEC2IRS2_NS_18__default_init_tagEEEOT_OT0_>
100002f30: e0 03 40 f9 	ldr	x0, [sp]
100002f34: fd 7b 42 a9 	ldp	x29, x30, [sp, #32]
100002f38: ff c3 00 91 	add	sp, sp, #48
100002f3c: c0 03 5f d6 	ret

0000000100002f40 <__ZNSt3__117__compressed_pairIPNS_15__thread_structENS_14default_deleteIS1_EEEC2IRS2_NS_18__default_init_tagEEEOT_OT0_>:
100002f40: ff 03 01 d1 	sub	sp, sp, #64
100002f44: fd 7b 03 a9 	stp	x29, x30, [sp, #48]
100002f48: fd c3 00 91 	add	x29, sp, #48
100002f4c: a0 83 1f f8 	stur	x0, [x29, #-8]
100002f50: a1 03 1f f8 	stur	x1, [x29, #-16]
100002f54: e2 0f 00 f9 	str	x2, [sp, #24]
100002f58: a8 83 5f f8 	ldur	x8, [x29, #-8]
100002f5c: e8 07 00 f9 	str	x8, [sp, #8]
100002f60: a0 03 5f f8 	ldur	x0, [x29, #-16]
100002f64: 0c 00 00 94 	bl	0x100002f94 <__ZNSt3__1L7forwardIRPNS_15__thread_structEEEOT_RNS_16remove_referenceIS4_E4typeE>
100002f68: e1 03 00 aa 	mov	x1, x0
100002f6c: e0 07 40 f9 	ldr	x0, [sp, #8]
100002f70: 0e 00 00 94 	bl	0x100002fa8 <__ZNSt3__122__compressed_pair_elemIPNS_15__thread_structELi0ELb0EEC2IRS2_vEEOT_>
100002f74: e0 0f 40 f9 	ldr	x0, [sp, #24]
100002f78: c5 fd ff 97 	bl	0x10000268c <__ZNSt3__1L7forwardINS_18__default_init_tagEEEOT_RNS_16remove_referenceIS2_E4typeE>
100002f7c: e0 07 40 f9 	ldr	x0, [sp, #8]
100002f80: 1a 00 00 94 	bl	0x100002fe8 <__ZNSt3__122__compressed_pair_elemINS_14default_deleteINS_15__thread_structEEELi1ELb1EEC2ENS_18__default_init_tagE>
100002f84: e0 07 40 f9 	ldr	x0, [sp, #8]
100002f88: fd 7b 43 a9 	ldp	x29, x30, [sp, #48]
100002f8c: ff 03 01 91 	add	sp, sp, #64
100002f90: c0 03 5f d6 	ret

0000000100002f94 <__ZNSt3__1L7forwardIRPNS_15__thread_structEEEOT_RNS_16remove_referenceIS4_E4typeE>:
100002f94: ff 43 00 d1 	sub	sp, sp, #16
100002f98: e0 07 00 f9 	str	x0, [sp, #8]
100002f9c: e0 07 40 f9 	ldr	x0, [sp, #8]
100002fa0: ff 43 00 91 	add	sp, sp, #16
100002fa4: c0 03 5f d6 	ret

0000000100002fa8 <__ZNSt3__122__compressed_pair_elemIPNS_15__thread_structELi0ELb0EEC2IRS2_vEEOT_>:
100002fa8: ff c3 00 d1 	sub	sp, sp, #48
100002fac: fd 7b 02 a9 	stp	x29, x30, [sp, #32]
100002fb0: fd 83 00 91 	add	x29, sp, #32
100002fb4: a0 83 1f f8 	stur	x0, [x29, #-8]
100002fb8: e1 0b 00 f9 	str	x1, [sp, #16]
100002fbc: a8 83 5f f8 	ldur	x8, [x29, #-8]
100002fc0: e8 07 00 f9 	str	x8, [sp, #8]
100002fc4: e0 0b 40 f9 	ldr	x0, [sp, #16]
100002fc8: f3 ff ff 97 	bl	0x100002f94 <__ZNSt3__1L7forwardIRPNS_15__thread_structEEEOT_RNS_16remove_referenceIS4_E4typeE>
100002fcc: e8 03 00 aa 	mov	x8, x0
100002fd0: e0 07 40 f9 	ldr	x0, [sp, #8]
100002fd4: 08 01 40 f9 	ldr	x8, [x8]
100002fd8: 08 00 00 f9 	str	x8, [x0]
100002fdc: fd 7b 42 a9 	ldp	x29, x30, [sp, #32]
100002fe0: ff c3 00 91 	add	sp, sp, #48
100002fe4: c0 03 5f d6 	ret

0000000100002fe8 <__ZNSt3__122__compressed_pair_elemINS_14default_deleteINS_15__thread_structEEELi1ELb1EEC2ENS_18__default_init_tagE>:
100002fe8: ff 43 00 d1 	sub	sp, sp, #16
100002fec: e0 03 00 f9 	str	x0, [sp]
100002ff0: e0 03 40 f9 	ldr	x0, [sp]
100002ff4: ff 43 00 91 	add	sp, sp, #16
100002ff8: c0 03 5f d6 	ret

0000000100002ffc <__ZNSt3__15tupleIJNS_10unique_ptrINS_15__thread_structENS_14default_deleteIS2_EEEEPFviEiEEC2IJS5_S7_iELi0EEEDpOT_>:
100002ffc: ff 43 01 d1 	sub	sp, sp, #80
100003000: fd 7b 04 a9 	stp	x29, x30, [sp, #64]
100003004: fd 03 01 91 	add	x29, sp, #64
100003008: a0 83 1f f8 	stur	x0, [x29, #-8]
10000300c: a1 03 1f f8 	stur	x1, [x29, #-16]
100003010: a2 83 1e f8 	stur	x2, [x29, #-24]
100003014: e3 13 00 f9 	str	x3, [sp, #32]
100003018: a8 83 5f f8 	ldur	x8, [x29, #-8]
10000301c: e8 0b 00 f9 	str	x8, [sp, #16]
100003020: a0 03 5f f8 	ldur	x0, [x29, #-16]
100003024: 10 00 00 94 	bl	0x100003064 <__ZNSt3__1L7forwardINS_10unique_ptrINS_15__thread_structENS_14default_deleteIS2_EEEEEEOT_RNS_16remove_referenceIS6_E4typeE>
100003028: e0 03 00 f9 	str	x0, [sp]
10000302c: a0 83 5e f8 	ldur	x0, [x29, #-24]
100003030: 12 00 00 94 	bl	0x100003078 <__ZNSt3__1L7forwardIPFviEEEOT_RNS_16remove_referenceIS3_E4typeE>
100003034: e0 07 00 f9 	str	x0, [sp, #8]
100003038: e0 13 40 f9 	ldr	x0, [sp, #32]
10000303c: 14 00 00 94 	bl	0x10000308c <__ZNSt3__1L7forwardIiEEOT_RNS_16remove_referenceIS1_E4typeE>
100003040: e1 03 40 f9 	ldr	x1, [sp]
100003044: e2 07 40 f9 	ldr	x2, [sp, #8]
100003048: e3 03 00 aa 	mov	x3, x0
10000304c: e0 0b 40 f9 	ldr	x0, [sp, #16]
100003050: 14 00 00 94 	bl	0x1000030a0 <__ZNSt3__112__tuple_implINS_15__tuple_indicesIJLm0ELm1ELm2EEEEJNS_10unique_ptrINS_15__thread_structENS_14default_deleteIS4_EEEEPFviEiEEC1IJLm0ELm1ELm2EEJS7_S9_iEJEJEJS7_S9_iEEENS1_IJXspT_EEEENS_13__tuple_typesIJDpT0_EEENS1_IJXspT1_EEEENSD_IJDpT2_EEEDpOT3_>
100003054: e0 0b 40 f9 	ldr	x0, [sp, #16]
100003058: fd 7b 44 a9 	ldp	x29, x30, [sp, #64]
10000305c: ff 43 01 91 	add	sp, sp, #80
100003060: c0 03 5f d6 	ret

0000000100003064 <__ZNSt3__1L7forwardINS_10unique_ptrINS_15__thread_structENS_14default_deleteIS2_EEEEEEOT_RNS_16remove_referenceIS6_E4typeE>:
100003064: ff 43 00 d1 	sub	sp, sp, #16
100003068: e0 07 00 f9 	str	x0, [sp, #8]
10000306c: e0 07 40 f9 	ldr	x0, [sp, #8]
100003070: ff 43 00 91 	add	sp, sp, #16
100003074: c0 03 5f d6 	ret

0000000100003078 <__ZNSt3__1L7forwardIPFviEEEOT_RNS_16remove_referenceIS3_E4typeE>:
100003078: ff 43 00 d1 	sub	sp, sp, #16
10000307c: e0 07 00 f9 	str	x0, [sp, #8]
100003080: e0 07 40 f9 	ldr	x0, [sp, #8]
100003084: ff 43 00 91 	add	sp, sp, #16
100003088: c0 03 5f d6 	ret

000000010000308c <__ZNSt3__1L7forwardIiEEOT_RNS_16remove_referenceIS1_E4typeE>:
10000308c: ff 43 00 d1 	sub	sp, sp, #16
100003090: e0 07 00 f9 	str	x0, [sp, #8]
100003094: e0 07 40 f9 	ldr	x0, [sp, #8]
100003098: ff 43 00 91 	add	sp, sp, #16
10000309c: c0 03 5f d6 	ret

00000001000030a0 <__ZNSt3__112__tuple_implINS_15__tuple_indicesIJLm0ELm1ELm2EEEEJNS_10unique_ptrINS_15__thread_structENS_14default_deleteIS4_EEEEPFviEiEEC1IJLm0ELm1ELm2EEJS7_S9_iEJEJEJS7_S9_iEEENS1_IJXspT_EEEENS_13__tuple_typesIJDpT0_EEENS1_IJXspT1_EEEENSD_IJDpT2_EEEDpOT3_>:
1000030a0: ff 03 01 d1 	sub	sp, sp, #64
1000030a4: fd 7b 03 a9 	stp	x29, x30, [sp, #48]
1000030a8: fd c3 00 91 	add	x29, sp, #48
1000030ac: a0 03 1f f8 	stur	x0, [x29, #-16]
1000030b0: e1 0f 00 f9 	str	x1, [sp, #24]
1000030b4: e2 0b 00 f9 	str	x2, [sp, #16]
1000030b8: e3 07 00 f9 	str	x3, [sp, #8]
1000030bc: a0 03 5f f8 	ldur	x0, [x29, #-16]
1000030c0: e0 03 00 f9 	str	x0, [sp]
1000030c4: e1 0f 40 f9 	ldr	x1, [sp, #24]
1000030c8: e2 0b 40 f9 	ldr	x2, [sp, #16]
1000030cc: e3 07 40 f9 	ldr	x3, [sp, #8]
1000030d0: 05 00 00 94 	bl	0x1000030e4 <__ZNSt3__112__tuple_implINS_15__tuple_indicesIJLm0ELm1ELm2EEEEJNS_10unique_ptrINS_15__thread_structENS_14default_deleteIS4_EEEEPFviEiEEC2IJLm0ELm1ELm2EEJS7_S9_iEJEJEJS7_S9_iEEENS1_IJXspT_EEEENS_13__tuple_typesIJDpT0_EEENS1_IJXspT1_EEEENSD_IJDpT2_EEEDpOT3_>
1000030d4: e0 03 40 f9 	ldr	x0, [sp]
1000030d8: fd 7b 43 a9 	ldp	x29, x30, [sp, #48]
1000030dc: ff 03 01 91 	add	sp, sp, #64
1000030e0: c0 03 5f d6 	ret

00000001000030e4 <__ZNSt3__112__tuple_implINS_15__tuple_indicesIJLm0ELm1ELm2EEEEJNS_10unique_ptrINS_15__thread_structENS_14default_deleteIS4_EEEEPFviEiEEC2IJLm0ELm1ELm2EEJS7_S9_iEJEJEJS7_S9_iEEENS1_IJXspT_EEEENS_13__tuple_typesIJDpT0_EEENS1_IJXspT1_EEEENSD_IJDpT2_EEEDpOT3_>:
1000030e4: ff 03 01 d1 	sub	sp, sp, #64
1000030e8: fd 7b 03 a9 	stp	x29, x30, [sp, #48]
1000030ec: fd c3 00 91 	add	x29, sp, #48
1000030f0: a0 03 1f f8 	stur	x0, [x29, #-16]
1000030f4: e1 0f 00 f9 	str	x1, [sp, #24]
1000030f8: e2 0b 00 f9 	str	x2, [sp, #16]
1000030fc: e3 07 00 f9 	str	x3, [sp, #8]
100003100: a8 03 5f f8 	ldur	x8, [x29, #-16]
100003104: e8 03 00 f9 	str	x8, [sp]
100003108: e0 0f 40 f9 	ldr	x0, [sp, #24]
10000310c: d6 ff ff 97 	bl	0x100003064 <__ZNSt3__1L7forwardINS_10unique_ptrINS_15__thread_structENS_14default_deleteIS2_EEEEEEOT_RNS_16remove_referenceIS6_E4typeE>
100003110: e1 03 00 aa 	mov	x1, x0
100003114: e0 03 40 f9 	ldr	x0, [sp]
100003118: 11 00 00 94 	bl	0x10000315c <__ZNSt3__112__tuple_leafILm0ENS_10unique_ptrINS_15__thread_structENS_14default_deleteIS2_EEEELb0EEC2IS5_vEEOT_>
10000311c: e0 0b 40 f9 	ldr	x0, [sp, #16]
100003120: d6 ff ff 97 	bl	0x100003078 <__ZNSt3__1L7forwardIPFviEEEOT_RNS_16remove_referenceIS3_E4typeE>
100003124: e8 03 40 f9 	ldr	x8, [sp]
100003128: e1 03 00 aa 	mov	x1, x0
10000312c: 00 21 00 91 	add	x0, x8, #8
100003130: 1b 00 00 94 	bl	0x10000319c <__ZNSt3__112__tuple_leafILm1EPFviELb0EEC2IS2_vEEOT_>
100003134: e0 07 40 f9 	ldr	x0, [sp, #8]
100003138: d5 ff ff 97 	bl	0x10000308c <__ZNSt3__1L7forwardIiEEOT_RNS_16remove_referenceIS1_E4typeE>
10000313c: e8 03 40 f9 	ldr	x8, [sp]
100003140: e1 03 00 aa 	mov	x1, x0
100003144: 00 41 00 91 	add	x0, x8, #16
100003148: 25 00 00 94 	bl	0x1000031dc <__ZNSt3__112__tuple_leafILm2EiLb0EEC2IivEEOT_>
10000314c: e0 03 40 f9 	ldr	x0, [sp]
100003150: fd 7b 43 a9 	ldp	x29, x30, [sp, #48]
100003154: ff 03 01 91 	add	sp, sp, #64
100003158: c0 03 5f d6 	ret

000000010000315c <__ZNSt3__112__tuple_leafILm0ENS_10unique_ptrINS_15__thread_structENS_14default_deleteIS2_EEEELb0EEC2IS5_vEEOT_>:
10000315c: ff c3 00 d1 	sub	sp, sp, #48
100003160: fd 7b 02 a9 	stp	x29, x30, [sp, #32]
100003164: fd 83 00 91 	add	x29, sp, #32
100003168: a0 83 1f f8 	stur	x0, [x29, #-8]
10000316c: e1 0b 00 f9 	str	x1, [sp, #16]
100003170: a8 83 5f f8 	ldur	x8, [x29, #-8]
100003174: e8 07 00 f9 	str	x8, [sp, #8]
100003178: e0 0b 40 f9 	ldr	x0, [sp, #16]
10000317c: ba ff ff 97 	bl	0x100003064 <__ZNSt3__1L7forwardINS_10unique_ptrINS_15__thread_structENS_14default_deleteIS2_EEEEEEOT_RNS_16remove_referenceIS6_E4typeE>
100003180: e1 03 00 aa 	mov	x1, x0
100003184: e0 07 40 f9 	ldr	x0, [sp, #8]
100003188: 25 00 00 94 	bl	0x10000321c <__ZNSt3__110unique_ptrINS_15__thread_structENS_14default_deleteIS1_EEEC1EOS4_>
10000318c: e0 07 40 f9 	ldr	x0, [sp, #8]
100003190: fd 7b 42 a9 	ldp	x29, x30, [sp, #32]
100003194: ff c3 00 91 	add	sp, sp, #48
100003198: c0 03 5f d6 	ret

000000010000319c <__ZNSt3__112__tuple_leafILm1EPFviELb0EEC2IS2_vEEOT_>:
10000319c: ff c3 00 d1 	sub	sp, sp, #48
1000031a0: fd 7b 02 a9 	stp	x29, x30, [sp, #32]
1000031a4: fd 83 00 91 	add	x29, sp, #32
1000031a8: a0 83 1f f8 	stur	x0, [x29, #-8]
1000031ac: e1 0b 00 f9 	str	x1, [sp, #16]
1000031b0: a8 83 5f f8 	ldur	x8, [x29, #-8]
1000031b4: e8 07 00 f9 	str	x8, [sp, #8]
1000031b8: e0 0b 40 f9 	ldr	x0, [sp, #16]
1000031bc: af ff ff 97 	bl	0x100003078 <__ZNSt3__1L7forwardIPFviEEEOT_RNS_16remove_referenceIS3_E4typeE>
1000031c0: e8 03 00 aa 	mov	x8, x0
1000031c4: e0 07 40 f9 	ldr	x0, [sp, #8]
1000031c8: 08 01 40 f9 	ldr	x8, [x8]
1000031cc: 08 00 00 f9 	str	x8, [x0]
1000031d0: fd 7b 42 a9 	ldp	x29, x30, [sp, #32]
1000031d4: ff c3 00 91 	add	sp, sp, #48
1000031d8: c0 03 5f d6 	ret

00000001000031dc <__ZNSt3__112__tuple_leafILm2EiLb0EEC2IivEEOT_>:
1000031dc: ff c3 00 d1 	sub	sp, sp, #48
1000031e0: fd 7b 02 a9 	stp	x29, x30, [sp, #32]
1000031e4: fd 83 00 91 	add	x29, sp, #32
1000031e8: a0 83 1f f8 	stur	x0, [x29, #-8]
1000031ec: e1 0b 00 f9 	str	x1, [sp, #16]
1000031f0: a8 83 5f f8 	ldur	x8, [x29, #-8]
1000031f4: e8 07 00 f9 	str	x8, [sp, #8]
1000031f8: e0 0b 40 f9 	ldr	x0, [sp, #16]
1000031fc: a4 ff ff 97 	bl	0x10000308c <__ZNSt3__1L7forwardIiEEOT_RNS_16remove_referenceIS1_E4typeE>
100003200: e8 03 00 aa 	mov	x8, x0
100003204: e0 07 40 f9 	ldr	x0, [sp, #8]
100003208: 08 01 40 b9 	ldr	w8, [x8]
10000320c: 08 00 00 b9 	str	w8, [x0]
100003210: fd 7b 42 a9 	ldp	x29, x30, [sp, #32]
100003214: ff c3 00 91 	add	sp, sp, #48
100003218: c0 03 5f d6 	ret

000000010000321c <__ZNSt3__110unique_ptrINS_15__thread_structENS_14default_deleteIS1_EEEC1EOS4_>:
10000321c: ff c3 00 d1 	sub	sp, sp, #48
100003220: fd 7b 02 a9 	stp	x29, x30, [sp, #32]
100003224: fd 83 00 91 	add	x29, sp, #32
100003228: a0 83 1f f8 	stur	x0, [x29, #-8]
10000322c: e1 0b 00 f9 	str	x1, [sp, #16]
100003230: a0 83 5f f8 	ldur	x0, [x29, #-8]
100003234: e0 07 00 f9 	str	x0, [sp, #8]
100003238: e1 0b 40 f9 	ldr	x1, [sp, #16]
10000323c: 05 00 00 94 	bl	0x100003250 <__ZNSt3__110unique_ptrINS_15__thread_structENS_14default_deleteIS1_EEEC2EOS4_>
100003240: e0 07 40 f9 	ldr	x0, [sp, #8]
100003244: fd 7b 42 a9 	ldp	x29, x30, [sp, #32]
100003248: ff c3 00 91 	add	sp, sp, #48
10000324c: c0 03 5f d6 	ret

0000000100003250 <__ZNSt3__110unique_ptrINS_15__thread_structENS_14default_deleteIS1_EEEC2EOS4_>:
100003250: ff 03 01 d1 	sub	sp, sp, #64
100003254: fd 7b 03 a9 	stp	x29, x30, [sp, #48]
100003258: fd c3 00 91 	add	x29, sp, #48
10000325c: a0 83 1f f8 	stur	x0, [x29, #-8]
100003260: a1 03 1f f8 	stur	x1, [x29, #-16]
100003264: a8 83 5f f8 	ldur	x8, [x29, #-8]
100003268: e8 0b 00 f9 	str	x8, [sp, #16]
10000326c: a0 03 5f f8 	ldur	x0, [x29, #-16]
100003270: 11 00 00 94 	bl	0x1000032b4 <__ZNSt3__110unique_ptrINS_15__thread_structENS_14default_deleteIS1_EEE7releaseEv>
100003274: e8 63 00 91 	add	x8, sp, #24
100003278: e8 07 00 f9 	str	x8, [sp, #8]
10000327c: e0 0f 00 f9 	str	x0, [sp, #24]
100003280: a0 03 5f f8 	ldur	x0, [x29, #-16]
100003284: 22 00 00 94 	bl	0x10000330c <__ZNSt3__110unique_ptrINS_15__thread_structENS_14default_deleteIS1_EEE11get_deleterEv>
100003288: 1c 00 00 94 	bl	0x1000032f8 <__ZNSt3__1L7forwardINS_14default_deleteINS_15__thread_structEEEEEOT_RNS_16remove_referenceIS4_E4typeE>
10000328c: e1 07 40 f9 	ldr	x1, [sp, #8]
100003290: e2 03 00 aa 	mov	x2, x0
100003294: e0 0b 40 f9 	ldr	x0, [sp, #16]
100003298: 26 00 00 94 	bl	0x100003330 <__ZNSt3__117__compressed_pairIPNS_15__thread_structENS_14default_deleteIS1_EEEC1IS2_S4_EEOT_OT0_>
10000329c: 01 00 00 14 	b	0x1000032a0 <__ZNSt3__110unique_ptrINS_15__thread_structENS_14default_deleteIS1_EEEC2EOS4_+0x50>
1000032a0: e0 0b 40 f9 	ldr	x0, [sp, #16]
1000032a4: fd 7b 43 a9 	ldp	x29, x30, [sp, #48]
1000032a8: ff 03 01 91 	add	sp, sp, #64
1000032ac: c0 03 5f d6 	ret
1000032b0: 30 fb ff 97 	bl	0x100001f70 <___clang_call_terminate>

00000001000032b4 <__ZNSt3__110unique_ptrINS_15__thread_structENS_14default_deleteIS1_EEE7releaseEv>:
1000032b4: ff c3 00 d1 	sub	sp, sp, #48
1000032b8: fd 7b 02 a9 	stp	x29, x30, [sp, #32]
1000032bc: fd 83 00 91 	add	x29, sp, #32
1000032c0: a0 83 1f f8 	stur	x0, [x29, #-8]
1000032c4: a0 83 5f f8 	ldur	x0, [x29, #-8]
1000032c8: e0 07 00 f9 	str	x0, [sp, #8]
1000032cc: 28 00 00 94 	bl	0x10000336c <__ZNSt3__117__compressed_pairIPNS_15__thread_structENS_14default_deleteIS1_EEE5firstEv>
1000032d0: e8 03 00 aa 	mov	x8, x0
1000032d4: e0 07 40 f9 	ldr	x0, [sp, #8]
1000032d8: 08 01 40 f9 	ldr	x8, [x8]
1000032dc: e8 0b 00 f9 	str	x8, [sp, #16]
1000032e0: 23 00 00 94 	bl	0x10000336c <__ZNSt3__117__compressed_pairIPNS_15__thread_structENS_14default_deleteIS1_EEE5firstEv>
1000032e4: 1f 00 00 f9 	str	xzr, [x0]
1000032e8: e0 0b 40 f9 	ldr	x0, [sp, #16]
1000032ec: fd 7b 42 a9 	ldp	x29, x30, [sp, #32]
1000032f0: ff c3 00 91 	add	sp, sp, #48
1000032f4: c0 03 5f d6 	ret

00000001000032f8 <__ZNSt3__1L7forwardINS_14default_deleteINS_15__thread_structEEEEEOT_RNS_16remove_referenceIS4_E4typeE>:
1000032f8: ff 43 00 d1 	sub	sp, sp, #16
1000032fc: e0 07 00 f9 	str	x0, [sp, #8]
100003300: e0 07 40 f9 	ldr	x0, [sp, #8]
100003304: ff 43 00 91 	add	sp, sp, #16
100003308: c0 03 5f d6 	ret

000000010000330c <__ZNSt3__110unique_ptrINS_15__thread_structENS_14default_deleteIS1_EEE11get_deleterEv>:
10000330c: ff 83 00 d1 	sub	sp, sp, #32
100003310: fd 7b 01 a9 	stp	x29, x30, [sp, #16]
100003314: fd 43 00 91 	add	x29, sp, #16
100003318: e0 07 00 f9 	str	x0, [sp, #8]
10000331c: e0 07 40 f9 	ldr	x0, [sp, #8]
100003320: 21 00 00 94 	bl	0x1000033a4 <__ZNSt3__117__compressed_pairIPNS_15__thread_structENS_14default_deleteIS1_EEE6secondEv>
100003324: fd 7b 41 a9 	ldp	x29, x30, [sp, #16]
100003328: ff 83 00 91 	add	sp, sp, #32
10000332c: c0 03 5f d6 	ret

0000000100003330 <__ZNSt3__117__compressed_pairIPNS_15__thread_structENS_14default_deleteIS1_EEEC1IS2_S4_EEOT_OT0_>:
100003330: ff c3 00 d1 	sub	sp, sp, #48
100003334: fd 7b 02 a9 	stp	x29, x30, [sp, #32]
100003338: fd 83 00 91 	add	x29, sp, #32
10000333c: a0 83 1f f8 	stur	x0, [x29, #-8]
100003340: e1 0b 00 f9 	str	x1, [sp, #16]
100003344: e2 07 00 f9 	str	x2, [sp, #8]
100003348: a0 83 5f f8 	ldur	x0, [x29, #-8]
10000334c: e0 03 00 f9 	str	x0, [sp]
100003350: e1 0b 40 f9 	ldr	x1, [sp, #16]
100003354: e2 07 40 f9 	ldr	x2, [sp, #8]
100003358: 21 00 00 94 	bl	0x1000033dc <__ZNSt3__117__compressed_pairIPNS_15__thread_structENS_14default_deleteIS1_EEEC2IS2_S4_EEOT_OT0_>
10000335c: e0 03 40 f9 	ldr	x0, [sp]
100003360: fd 7b 42 a9 	ldp	x29, x30, [sp, #32]
100003364: ff c3 00 91 	add	sp, sp, #48
100003368: c0 03 5f d6 	ret

000000010000336c <__ZNSt3__117__compressed_pairIPNS_15__thread_structENS_14default_deleteIS1_EEE5firstEv>:
10000336c: ff 83 00 d1 	sub	sp, sp, #32
100003370: fd 7b 01 a9 	stp	x29, x30, [sp, #16]
100003374: fd 43 00 91 	add	x29, sp, #16
100003378: e0 07 00 f9 	str	x0, [sp, #8]
10000337c: e0 07 40 f9 	ldr	x0, [sp, #8]
100003380: 04 00 00 94 	bl	0x100003390 <__ZNSt3__122__compressed_pair_elemIPNS_15__thread_structELi0ELb0EE5__getEv>
100003384: fd 7b 41 a9 	ldp	x29, x30, [sp, #16]
100003388: ff 83 00 91 	add	sp, sp, #32
10000338c: c0 03 5f d6 	ret

0000000100003390 <__ZNSt3__122__compressed_pair_elemIPNS_15__thread_structELi0ELb0EE5__getEv>:
100003390: ff 43 00 d1 	sub	sp, sp, #16
100003394: e0 07 00 f9 	str	x0, [sp, #8]
100003398: e0 07 40 f9 	ldr	x0, [sp, #8]
10000339c: ff 43 00 91 	add	sp, sp, #16
1000033a0: c0 03 5f d6 	ret

00000001000033a4 <__ZNSt3__117__compressed_pairIPNS_15__thread_structENS_14default_deleteIS1_EEE6secondEv>:
1000033a4: ff 83 00 d1 	sub	sp, sp, #32
1000033a8: fd 7b 01 a9 	stp	x29, x30, [sp, #16]
1000033ac: fd 43 00 91 	add	x29, sp, #16
1000033b0: e0 07 00 f9 	str	x0, [sp, #8]
1000033b4: e0 07 40 f9 	ldr	x0, [sp, #8]
1000033b8: 04 00 00 94 	bl	0x1000033c8 <__ZNSt3__122__compressed_pair_elemINS_14default_deleteINS_15__thread_structEEELi1ELb1EE5__getEv>
1000033bc: fd 7b 41 a9 	ldp	x29, x30, [sp, #16]
1000033c0: ff 83 00 91 	add	sp, sp, #32
1000033c4: c0 03 5f d6 	ret

00000001000033c8 <__ZNSt3__122__compressed_pair_elemINS_14default_deleteINS_15__thread_structEEELi1ELb1EE5__getEv>:
1000033c8: ff 43 00 d1 	sub	sp, sp, #16
1000033cc: e0 07 00 f9 	str	x0, [sp, #8]
1000033d0: e0 07 40 f9 	ldr	x0, [sp, #8]
1000033d4: ff 43 00 91 	add	sp, sp, #16
1000033d8: c0 03 5f d6 	ret

00000001000033dc <__ZNSt3__117__compressed_pairIPNS_15__thread_structENS_14default_deleteIS1_EEEC2IS2_S4_EEOT_OT0_>:
1000033dc: ff c3 00 d1 	sub	sp, sp, #48
1000033e0: fd 7b 02 a9 	stp	x29, x30, [sp, #32]
1000033e4: fd 83 00 91 	add	x29, sp, #32
1000033e8: a0 83 1f f8 	stur	x0, [x29, #-8]
1000033ec: e1 0b 00 f9 	str	x1, [sp, #16]
1000033f0: e2 07 00 f9 	str	x2, [sp, #8]
1000033f4: a8 83 5f f8 	ldur	x8, [x29, #-8]
1000033f8: e8 03 00 f9 	str	x8, [sp]
1000033fc: e0 0b 40 f9 	ldr	x0, [sp, #16]
100003400: 0d 00 00 94 	bl	0x100003434 <__ZNSt3__1L7forwardIPNS_15__thread_structEEEOT_RNS_16remove_referenceIS3_E4typeE>
100003404: e1 03 00 aa 	mov	x1, x0
100003408: e0 03 40 f9 	ldr	x0, [sp]
10000340c: 0f 00 00 94 	bl	0x100003448 <__ZNSt3__122__compressed_pair_elemIPNS_15__thread_structELi0ELb0EEC2IS2_vEEOT_>
100003410: e0 07 40 f9 	ldr	x0, [sp, #8]
100003414: b9 ff ff 97 	bl	0x1000032f8 <__ZNSt3__1L7forwardINS_14default_deleteINS_15__thread_structEEEEEOT_RNS_16remove_referenceIS4_E4typeE>
100003418: e1 03 00 aa 	mov	x1, x0
10000341c: e0 03 40 f9 	ldr	x0, [sp]
100003420: 1a 00 00 94 	bl	0x100003488 <__ZNSt3__122__compressed_pair_elemINS_14default_deleteINS_15__thread_structEEELi1ELb1EEC2IS3_vEEOT_>
100003424: e0 03 40 f9 	ldr	x0, [sp]
100003428: fd 7b 42 a9 	ldp	x29, x30, [sp, #32]
10000342c: ff c3 00 91 	add	sp, sp, #48
100003430: c0 03 5f d6 	ret

0000000100003434 <__ZNSt3__1L7forwardIPNS_15__thread_structEEEOT_RNS_16remove_referenceIS3_E4typeE>:
100003434: ff 43 00 d1 	sub	sp, sp, #16
100003438: e0 07 00 f9 	str	x0, [sp, #8]
10000343c: e0 07 40 f9 	ldr	x0, [sp, #8]
100003440: ff 43 00 91 	add	sp, sp, #16
100003444: c0 03 5f d6 	ret

0000000100003448 <__ZNSt3__122__compressed_pair_elemIPNS_15__thread_structELi0ELb0EEC2IS2_vEEOT_>:
100003448: ff c3 00 d1 	sub	sp, sp, #48
10000344c: fd 7b 02 a9 	stp	x29, x30, [sp, #32]
100003450: fd 83 00 91 	add	x29, sp, #32
100003454: a0 83 1f f8 	stur	x0, [x29, #-8]
100003458: e1 0b 00 f9 	str	x1, [sp, #16]
10000345c: a8 83 5f f8 	ldur	x8, [x29, #-8]
100003460: e8 07 00 f9 	str	x8, [sp, #8]
100003464: e0 0b 40 f9 	ldr	x0, [sp, #16]
100003468: f3 ff ff 97 	bl	0x100003434 <__ZNSt3__1L7forwardIPNS_15__thread_structEEEOT_RNS_16remove_referenceIS3_E4typeE>
10000346c: e8 03 00 aa 	mov	x8, x0
100003470: e0 07 40 f9 	ldr	x0, [sp, #8]
100003474: 08 01 40 f9 	ldr	x8, [x8]
100003478: 08 00 00 f9 	str	x8, [x0]
10000347c: fd 7b 42 a9 	ldp	x29, x30, [sp, #32]
100003480: ff c3 00 91 	add	sp, sp, #48
100003484: c0 03 5f d6 	ret

0000000100003488 <__ZNSt3__122__compressed_pair_elemINS_14default_deleteINS_15__thread_structEEELi1ELb1EEC2IS3_vEEOT_>:
100003488: ff c3 00 d1 	sub	sp, sp, #48
10000348c: fd 7b 02 a9 	stp	x29, x30, [sp, #32]
100003490: fd 83 00 91 	add	x29, sp, #32
100003494: a0 83 1f f8 	stur	x0, [x29, #-8]
100003498: e1 0b 00 f9 	str	x1, [sp, #16]
10000349c: a8 83 5f f8 	ldur	x8, [x29, #-8]
1000034a0: e8 07 00 f9 	str	x8, [sp, #8]
1000034a4: e0 0b 40 f9 	ldr	x0, [sp, #16]
1000034a8: 94 ff ff 97 	bl	0x1000032f8 <__ZNSt3__1L7forwardINS_14default_deleteINS_15__thread_structEEEEEOT_RNS_16remove_referenceIS4_E4typeE>
1000034ac: e0 07 40 f9 	ldr	x0, [sp, #8]
1000034b0: fd 7b 42 a9 	ldp	x29, x30, [sp, #32]
1000034b4: ff c3 00 91 	add	sp, sp, #48
1000034b8: c0 03 5f d6 	ret

00000001000034bc <__ZNSt3__110unique_ptrINS_5tupleIJNS0_INS_15__thread_structENS_14default_deleteIS2_EEEEPFviEiEEENS3_IS8_EEEC2ILb1EvEEPS8_>:
1000034bc: ff c3 00 d1 	sub	sp, sp, #48
1000034c0: fd 7b 02 a9 	stp	x29, x30, [sp, #32]
1000034c4: fd 83 00 91 	add	x29, sp, #32
1000034c8: e8 03 01 aa 	mov	x8, x1
1000034cc: a0 83 1f f8 	stur	x0, [x29, #-8]
1000034d0: e1 43 00 91 	add	x1, sp, #16
1000034d4: e8 0b 00 f9 	str	x8, [sp, #16]
1000034d8: a0 83 5f f8 	ldur	x0, [x29, #-8]
1000034dc: e0 03 00 f9 	str	x0, [sp]
1000034e0: e2 3f 00 91 	add	x2, sp, #15
1000034e4: 07 00 00 94 	bl	0x100003500 <__ZNSt3__117__compressed_pairIPNS_5tupleIJNS_10unique_ptrINS_15__thread_structENS_14default_deleteIS3_EEEEPFviEiEEENS4_IS9_EEEC1IRSA_NS_18__default_init_tagEEEOT_OT0_>
1000034e8: 01 00 00 14 	b	0x1000034ec <__ZNSt3__110unique_ptrINS_5tupleIJNS0_INS_15__thread_structENS_14default_deleteIS2_EEEEPFviEiEEENS3_IS8_EEEC2ILb1EvEEPS8_+0x30>
1000034ec: e0 03 40 f9 	ldr	x0, [sp]
1000034f0: fd 7b 42 a9 	ldp	x29, x30, [sp, #32]
1000034f4: ff c3 00 91 	add	sp, sp, #48
1000034f8: c0 03 5f d6 	ret
1000034fc: 9d fa ff 97 	bl	0x100001f70 <___clang_call_terminate>

0000000100003500 <__ZNSt3__117__compressed_pairIPNS_5tupleIJNS_10unique_ptrINS_15__thread_structENS_14default_deleteIS3_EEEEPFviEiEEENS4_IS9_EEEC1IRSA_NS_18__default_init_tagEEEOT_OT0_>:
100003500: ff c3 00 d1 	sub	sp, sp, #48
100003504: fd 7b 02 a9 	stp	x29, x30, [sp, #32]
100003508: fd 83 00 91 	add	x29, sp, #32
10000350c: a0 83 1f f8 	stur	x0, [x29, #-8]
100003510: e1 0b 00 f9 	str	x1, [sp, #16]
100003514: e2 07 00 f9 	str	x2, [sp, #8]
100003518: a0 83 5f f8 	ldur	x0, [x29, #-8]
10000351c: e0 03 00 f9 	str	x0, [sp]
100003520: e1 0b 40 f9 	ldr	x1, [sp, #16]
100003524: e2 07 40 f9 	ldr	x2, [sp, #8]
100003528: 05 00 00 94 	bl	0x10000353c <__ZNSt3__117__compressed_pairIPNS_5tupleIJNS_10unique_ptrINS_15__thread_structENS_14default_deleteIS3_EEEEPFviEiEEENS4_IS9_EEEC2IRSA_NS_18__default_init_tagEEEOT_OT0_>
10000352c: e0 03 40 f9 	ldr	x0, [sp]
100003530: fd 7b 42 a9 	ldp	x29, x30, [sp, #32]
100003534: ff c3 00 91 	add	sp, sp, #48
100003538: c0 03 5f d6 	ret

000000010000353c <__ZNSt3__117__compressed_pairIPNS_5tupleIJNS_10unique_ptrINS_15__thread_structENS_14default_deleteIS3_EEEEPFviEiEEENS4_IS9_EEEC2IRSA_NS_18__default_init_tagEEEOT_OT0_>:
10000353c: ff 03 01 d1 	sub	sp, sp, #64
100003540: fd 7b 03 a9 	stp	x29, x30, [sp, #48]
100003544: fd c3 00 91 	add	x29, sp, #48
100003548: a0 83 1f f8 	stur	x0, [x29, #-8]
10000354c: a1 03 1f f8 	stur	x1, [x29, #-16]
100003550: e2 0f 00 f9 	str	x2, [sp, #24]
100003554: a8 83 5f f8 	ldur	x8, [x29, #-8]
100003558: e8 07 00 f9 	str	x8, [sp, #8]
10000355c: a0 03 5f f8 	ldur	x0, [x29, #-16]
100003560: 0c 00 00 94 	bl	0x100003590 <__ZNSt3__1L7forwardIRPNS_5tupleIJNS_10unique_ptrINS_15__thread_structENS_14default_deleteIS3_EEEEPFviEiEEEEEOT_RNS_16remove_referenceISC_E4typeE>
100003564: e1 03 00 aa 	mov	x1, x0
100003568: e0 07 40 f9 	ldr	x0, [sp, #8]
10000356c: 0e 00 00 94 	bl	0x1000035a4 <__ZNSt3__122__compressed_pair_elemIPNS_5tupleIJNS_10unique_ptrINS_15__thread_structENS_14default_deleteIS3_EEEEPFviEiEEELi0ELb0EEC2IRSA_vEEOT_>
100003570: e0 0f 40 f9 	ldr	x0, [sp, #24]
100003574: 46 fc ff 97 	bl	0x10000268c <__ZNSt3__1L7forwardINS_18__default_init_tagEEEOT_RNS_16remove_referenceIS2_E4typeE>
100003578: e0 07 40 f9 	ldr	x0, [sp, #8]
10000357c: 1a 00 00 94 	bl	0x1000035e4 <__ZNSt3__122__compressed_pair_elemINS_14default_deleteINS_5tupleIJNS_10unique_ptrINS_15__thread_structENS1_IS4_EEEEPFviEiEEEEELi1ELb1EEC2ENS_18__default_init_tagE>
100003580: e0 07 40 f9 	ldr	x0, [sp, #8]
100003584: fd 7b 43 a9 	ldp	x29, x30, [sp, #48]
100003588: ff 03 01 91 	add	sp, sp, #64
10000358c: c0 03 5f d6 	ret

0000000100003590 <__ZNSt3__1L7forwardIRPNS_5tupleIJNS_10unique_ptrINS_15__thread_structENS_14default_deleteIS3_EEEEPFviEiEEEEEOT_RNS_16remove_referenceISC_E4typeE>:
100003590: ff 43 00 d1 	sub	sp, sp, #16
100003594: e0 07 00 f9 	str	x0, [sp, #8]
100003598: e0 07 40 f9 	ldr	x0, [sp, #8]
10000359c: ff 43 00 91 	add	sp, sp, #16
1000035a0: c0 03 5f d6 	ret

00000001000035a4 <__ZNSt3__122__compressed_pair_elemIPNS_5tupleIJNS_10unique_ptrINS_15__thread_structENS_14default_deleteIS3_EEEEPFviEiEEELi0ELb0EEC2IRSA_vEEOT_>:
1000035a4: ff c3 00 d1 	sub	sp, sp, #48
1000035a8: fd 7b 02 a9 	stp	x29, x30, [sp, #32]
1000035ac: fd 83 00 91 	add	x29, sp, #32
1000035b0: a0 83 1f f8 	stur	x0, [x29, #-8]
1000035b4: e1 0b 00 f9 	str	x1, [sp, #16]
1000035b8: a8 83 5f f8 	ldur	x8, [x29, #-8]
1000035bc: e8 07 00 f9 	str	x8, [sp, #8]
1000035c0: e0 0b 40 f9 	ldr	x0, [sp, #16]
1000035c4: f3 ff ff 97 	bl	0x100003590 <__ZNSt3__1L7forwardIRPNS_5tupleIJNS_10unique_ptrINS_15__thread_structENS_14default_deleteIS3_EEEEPFviEiEEEEEOT_RNS_16remove_referenceISC_E4typeE>
1000035c8: e8 03 00 aa 	mov	x8, x0
1000035cc: e0 07 40 f9 	ldr	x0, [sp, #8]
1000035d0: 08 01 40 f9 	ldr	x8, [x8]
1000035d4: 08 00 00 f9 	str	x8, [x0]
1000035d8: fd 7b 42 a9 	ldp	x29, x30, [sp, #32]
1000035dc: ff c3 00 91 	add	sp, sp, #48
1000035e0: c0 03 5f d6 	ret

00000001000035e4 <__ZNSt3__122__compressed_pair_elemINS_14default_deleteINS_5tupleIJNS_10unique_ptrINS_15__thread_structENS1_IS4_EEEEPFviEiEEEEELi1ELb1EEC2ENS_18__default_init_tagE>:
1000035e4: ff 43 00 d1 	sub	sp, sp, #16
1000035e8: e0 03 00 f9 	str	x0, [sp]
1000035ec: e0 03 40 f9 	ldr	x0, [sp]
1000035f0: ff 43 00 91 	add	sp, sp, #16
1000035f4: c0 03 5f d6 	ret

00000001000035f8 <__ZNSt3__121__thread_specific_ptrINS_15__thread_structEE11set_pointerEPS1_>:
1000035f8: ff 83 00 d1 	sub	sp, sp, #32
1000035fc: fd 7b 01 a9 	stp	x29, x30, [sp, #16]
100003600: fd 43 00 91 	add	x29, sp, #16
100003604: e0 07 00 f9 	str	x0, [sp, #8]
100003608: e1 03 00 f9 	str	x1, [sp]
10000360c: e8 07 40 f9 	ldr	x8, [sp, #8]
100003610: 00 01 40 f9 	ldr	x0, [x8]
100003614: e1 03 40 f9 	ldr	x1, [sp]
100003618: 1e 00 00 94 	bl	0x100003690 <__ZNSt3__1L16__libcpp_tls_setEmPv>
10000361c: fd 7b 41 a9 	ldp	x29, x30, [sp, #16]
100003620: ff 83 00 91 	add	sp, sp, #32
100003624: c0 03 5f d6 	ret

0000000100003628 <__ZNSt3__1L3getILm0EJNS_10unique_ptrINS_15__thread_structENS_14default_deleteIS2_EEEEPFviEiEEERNS_13tuple_elementIXT_ENS_5tupleIJDpT0_EEEE4typeERSC_>:
100003628: ff 83 00 d1 	sub	sp, sp, #32
10000362c: fd 7b 01 a9 	stp	x29, x30, [sp, #16]
100003630: fd 43 00 91 	add	x29, sp, #16
100003634: e0 07 00 f9 	str	x0, [sp, #8]
100003638: e0 07 40 f9 	ldr	x0, [sp, #8]
10000363c: 20 00 00 94 	bl	0x1000036bc <__ZNSt3__112__tuple_leafILm0ENS_10unique_ptrINS_15__thread_structENS_14default_deleteIS2_EEEELb0EE3getEv>
100003640: fd 7b 41 a9 	ldp	x29, x30, [sp, #16]
100003644: ff 83 00 91 	add	sp, sp, #32
100003648: c0 03 5f d6 	ret

000000010000364c <__ZNSt3__1L16__thread_executeINS_10unique_ptrINS_15__thread_structENS_14default_deleteIS2_EEEEPFviEJiEJLm2EEEEvRNS_5tupleIJT_T0_DpT1_EEENS_15__tuple_indicesIJXspT2_EEEE>:
10000364c: ff c3 00 d1 	sub	sp, sp, #48
100003650: fd 7b 02 a9 	stp	x29, x30, [sp, #32]
100003654: fd 83 00 91 	add	x29, sp, #32
100003658: e0 0b 00 f9 	str	x0, [sp, #16]
10000365c: e0 0b 40 f9 	ldr	x0, [sp, #16]
100003660: 2e 00 00 94 	bl	0x100003718 <__ZNSt3__1L3getILm1EJNS_10unique_ptrINS_15__thread_structENS_14default_deleteIS2_EEEEPFviEiEEERNS_13tuple_elementIXT_ENS_5tupleIJDpT0_EEEE4typeERSC_>
100003664: 28 00 00 94 	bl	0x100003704 <__ZNSt3__1L4moveIRPFviEEEONS_16remove_referenceIT_E4typeEOS5_>
100003668: e0 07 00 f9 	str	x0, [sp, #8]
10000366c: e0 0b 40 f9 	ldr	x0, [sp, #16]
100003670: 39 00 00 94 	bl	0x100003754 <__ZNSt3__1L3getILm2EJNS_10unique_ptrINS_15__thread_structENS_14default_deleteIS2_EEEEPFviEiEEERNS_13tuple_elementIXT_ENS_5tupleIJDpT0_EEEE4typeERSC_>
100003674: 33 00 00 94 	bl	0x100003740 <__ZNSt3__1L4moveIRiEEONS_16remove_referenceIT_E4typeEOS3_>
100003678: e1 03 00 aa 	mov	x1, x0
10000367c: e0 07 40 f9 	ldr	x0, [sp, #8]
100003680: 14 00 00 94 	bl	0x1000036d0 <__ZNSt3__1L8__invokeIPFviEJiEEEDTclscT_fp_spscT0_fp0_EEOS3_DpOS4_>
100003684: fd 7b 42 a9 	ldp	x29, x30, [sp, #32]
100003688: ff c3 00 91 	add	sp, sp, #48
10000368c: c0 03 5f d6 	ret

0000000100003690 <__ZNSt3__1L16__libcpp_tls_setEmPv>:
100003690: ff 83 00 d1 	sub	sp, sp, #32
100003694: fd 7b 01 a9 	stp	x29, x30, [sp, #16]
100003698: fd 43 00 91 	add	x29, sp, #16
10000369c: e0 07 00 f9 	str	x0, [sp, #8]
1000036a0: e1 03 00 f9 	str	x1, [sp]
1000036a4: e0 07 40 f9 	ldr	x0, [sp, #8]
1000036a8: e1 03 40 f9 	ldr	x1, [sp]
1000036ac: 84 01 00 94 	bl	0x100003cbc <_strlen+0x100003cbc>
1000036b0: fd 7b 41 a9 	ldp	x29, x30, [sp, #16]
1000036b4: ff 83 00 91 	add	sp, sp, #32
1000036b8: c0 03 5f d6 	ret

00000001000036bc <__ZNSt3__112__tuple_leafILm0ENS_10unique_ptrINS_15__thread_structENS_14default_deleteIS2_EEEELb0EE3getEv>:
1000036bc: ff 43 00 d1 	sub	sp, sp, #16
1000036c0: e0 07 00 f9 	str	x0, [sp, #8]
1000036c4: e0 07 40 f9 	ldr	x0, [sp, #8]
1000036c8: ff 43 00 91 	add	sp, sp, #16
1000036cc: c0 03 5f d6 	ret

00000001000036d0 <__ZNSt3__1L8__invokeIPFviEJiEEEDTclscT_fp_spscT0_fp0_EEOS3_DpOS4_>:
1000036d0: ff 83 00 d1 	sub	sp, sp, #32
1000036d4: fd 7b 01 a9 	stp	x29, x30, [sp, #16]
1000036d8: fd 43 00 91 	add	x29, sp, #16
1000036dc: e0 07 00 f9 	str	x0, [sp, #8]
1000036e0: e1 03 00 f9 	str	x1, [sp]
1000036e4: e8 07 40 f9 	ldr	x8, [sp, #8]
1000036e8: 08 01 40 f9 	ldr	x8, [x8]
1000036ec: e9 03 40 f9 	ldr	x9, [sp]
1000036f0: 20 01 40 b9 	ldr	w0, [x9]
1000036f4: 00 01 3f d6 	blr	x8
1000036f8: fd 7b 41 a9 	ldp	x29, x30, [sp, #16]
1000036fc: ff 83 00 91 	add	sp, sp, #32
100003700: c0 03 5f d6 	ret

0000000100003704 <__ZNSt3__1L4moveIRPFviEEEONS_16remove_referenceIT_E4typeEOS5_>:
100003704: ff 43 00 d1 	sub	sp, sp, #16
100003708: e0 07 00 f9 	str	x0, [sp, #8]
10000370c: e0 07 40 f9 	ldr	x0, [sp, #8]
100003710: ff 43 00 91 	add	sp, sp, #16
100003714: c0 03 5f d6 	ret

0000000100003718 <__ZNSt3__1L3getILm1EJNS_10unique_ptrINS_15__thread_structENS_14default_deleteIS2_EEEEPFviEiEEERNS_13tuple_elementIXT_ENS_5tupleIJDpT0_EEEE4typeERSC_>:
100003718: ff 83 00 d1 	sub	sp, sp, #32
10000371c: fd 7b 01 a9 	stp	x29, x30, [sp, #16]
100003720: fd 43 00 91 	add	x29, sp, #16
100003724: e0 07 00 f9 	str	x0, [sp, #8]
100003728: e8 07 40 f9 	ldr	x8, [sp, #8]
10000372c: 00 21 00 91 	add	x0, x8, #8
100003730: 13 00 00 94 	bl	0x10000377c <__ZNSt3__112__tuple_leafILm1EPFviELb0EE3getEv>
100003734: fd 7b 41 a9 	ldp	x29, x30, [sp, #16]
100003738: ff 83 00 91 	add	sp, sp, #32
10000373c: c0 03 5f d6 	ret

0000000100003740 <__ZNSt3__1L4moveIRiEEONS_16remove_referenceIT_E4typeEOS3_>:
100003740: ff 43 00 d1 	sub	sp, sp, #16
100003744: e0 07 00 f9 	str	x0, [sp, #8]
100003748: e0 07 40 f9 	ldr	x0, [sp, #8]
10000374c: ff 43 00 91 	add	sp, sp, #16
100003750: c0 03 5f d6 	ret

0000000100003754 <__ZNSt3__1L3getILm2EJNS_10unique_ptrINS_15__thread_structENS_14default_deleteIS2_EEEEPFviEiEEERNS_13tuple_elementIXT_ENS_5tupleIJDpT0_EEEE4typeERSC_>:
100003754: ff 83 00 d1 	sub	sp, sp, #32
100003758: fd 7b 01 a9 	stp	x29, x30, [sp, #16]
10000375c: fd 43 00 91 	add	x29, sp, #16
100003760: e0 07 00 f9 	str	x0, [sp, #8]
100003764: e8 07 40 f9 	ldr	x8, [sp, #8]
100003768: 00 41 00 91 	add	x0, x8, #16
10000376c: 09 00 00 94 	bl	0x100003790 <__ZNSt3__112__tuple_leafILm2EiLb0EE3getEv>
100003770: fd 7b 41 a9 	ldp	x29, x30, [sp, #16]
100003774: ff 83 00 91 	add	sp, sp, #32
100003778: c0 03 5f d6 	ret

000000010000377c <__ZNSt3__112__tuple_leafILm1EPFviELb0EE3getEv>:
10000377c: ff 43 00 d1 	sub	sp, sp, #16
100003780: e0 07 00 f9 	str	x0, [sp, #8]
100003784: e0 07 40 f9 	ldr	x0, [sp, #8]
100003788: ff 43 00 91 	add	sp, sp, #16
10000378c: c0 03 5f d6 	ret

0000000100003790 <__ZNSt3__112__tuple_leafILm2EiLb0EE3getEv>:
100003790: ff 43 00 d1 	sub	sp, sp, #16
100003794: e0 07 00 f9 	str	x0, [sp, #8]
100003798: e0 07 40 f9 	ldr	x0, [sp, #8]
10000379c: ff 43 00 91 	add	sp, sp, #16
1000037a0: c0 03 5f d6 	ret

00000001000037a4 <__ZNKSt3__117__compressed_pairIPNS_5tupleIJNS_10unique_ptrINS_15__thread_structENS_14default_deleteIS3_EEEEPFviEiEEENS4_IS9_EEE5firstEv>:
1000037a4: ff 83 00 d1 	sub	sp, sp, #32
1000037a8: fd 7b 01 a9 	stp	x29, x30, [sp, #16]
1000037ac: fd 43 00 91 	add	x29, sp, #16
1000037b0: e0 07 00 f9 	str	x0, [sp, #8]
1000037b4: e0 07 40 f9 	ldr	x0, [sp, #8]
1000037b8: 04 00 00 94 	bl	0x1000037c8 <__ZNKSt3__122__compressed_pair_elemIPNS_5tupleIJNS_10unique_ptrINS_15__thread_structENS_14default_deleteIS3_EEEEPFviEiEEELi0ELb0EE5__getEv>
1000037bc: fd 7b 41 a9 	ldp	x29, x30, [sp, #16]
1000037c0: ff 83 00 91 	add	sp, sp, #32
1000037c4: c0 03 5f d6 	ret

00000001000037c8 <__ZNKSt3__122__compressed_pair_elemIPNS_5tupleIJNS_10unique_ptrINS_15__thread_structENS_14default_deleteIS3_EEEEPFviEiEEELi0ELb0EE5__getEv>:
1000037c8: ff 43 00 d1 	sub	sp, sp, #16
1000037cc: e0 07 00 f9 	str	x0, [sp, #8]
1000037d0: e0 07 40 f9 	ldr	x0, [sp, #8]
1000037d4: ff 43 00 91 	add	sp, sp, #16
1000037d8: c0 03 5f d6 	ret

00000001000037dc <__ZNSt3__117__compressed_pairIPNS_5tupleIJNS_10unique_ptrINS_15__thread_structENS_14default_deleteIS3_EEEEPFviEiEEENS4_IS9_EEE5firstEv>:
1000037dc: ff 83 00 d1 	sub	sp, sp, #32
1000037e0: fd 7b 01 a9 	stp	x29, x30, [sp, #16]
1000037e4: fd 43 00 91 	add	x29, sp, #16
1000037e8: e0 07 00 f9 	str	x0, [sp, #8]
1000037ec: e0 07 40 f9 	ldr	x0, [sp, #8]
1000037f0: 04 00 00 94 	bl	0x100003800 <__ZNSt3__122__compressed_pair_elemIPNS_5tupleIJNS_10unique_ptrINS_15__thread_structENS_14default_deleteIS3_EEEEPFviEiEEELi0ELb0EE5__getEv>
1000037f4: fd 7b 41 a9 	ldp	x29, x30, [sp, #16]
1000037f8: ff 83 00 91 	add	sp, sp, #32
1000037fc: c0 03 5f d6 	ret

0000000100003800 <__ZNSt3__122__compressed_pair_elemIPNS_5tupleIJNS_10unique_ptrINS_15__thread_structENS_14default_deleteIS3_EEEEPFviEiEEELi0ELb0EE5__getEv>:
100003800: ff 43 00 d1 	sub	sp, sp, #16
100003804: e0 07 00 f9 	str	x0, [sp, #8]
100003808: e0 07 40 f9 	ldr	x0, [sp, #8]
10000380c: ff 43 00 91 	add	sp, sp, #16
100003810: c0 03 5f d6 	ret

0000000100003814 <__ZNSt3__110unique_ptrINS_5tupleIJNS0_INS_15__thread_structENS_14default_deleteIS2_EEEEPFviEiEEENS3_IS8_EEED2Ev>:
100003814: ff 83 00 d1 	sub	sp, sp, #32
100003818: fd 7b 01 a9 	stp	x29, x30, [sp, #16]
10000381c: fd 43 00 91 	add	x29, sp, #16
100003820: e0 07 00 f9 	str	x0, [sp, #8]
100003824: e0 07 40 f9 	ldr	x0, [sp, #8]
100003828: e0 03 00 f9 	str	x0, [sp]
10000382c: 01 00 80 d2 	mov	x1, #0
100003830: 05 00 00 94 	bl	0x100003844 <__ZNSt3__110unique_ptrINS_5tupleIJNS0_INS_15__thread_structENS_14default_deleteIS2_EEEEPFviEiEEENS3_IS8_EEE5resetEPS8_>
100003834: e0 03 40 f9 	ldr	x0, [sp]
100003838: fd 7b 41 a9 	ldp	x29, x30, [sp, #16]
10000383c: ff 83 00 91 	add	sp, sp, #32
100003840: c0 03 5f d6 	ret

0000000100003844 <__ZNSt3__110unique_ptrINS_5tupleIJNS0_INS_15__thread_structENS_14default_deleteIS2_EEEEPFviEiEEENS3_IS8_EEE5resetEPS8_>:
100003844: ff 03 01 d1 	sub	sp, sp, #64
100003848: fd 7b 03 a9 	stp	x29, x30, [sp, #48]
10000384c: fd c3 00 91 	add	x29, sp, #48
100003850: a0 83 1f f8 	stur	x0, [x29, #-8]
100003854: a1 03 1f f8 	stur	x1, [x29, #-16]
100003858: a0 83 5f f8 	ldur	x0, [x29, #-8]
10000385c: e0 07 00 f9 	str	x0, [sp, #8]
100003860: df ff ff 97 	bl	0x1000037dc <__ZNSt3__117__compressed_pairIPNS_5tupleIJNS_10unique_ptrINS_15__thread_structENS_14default_deleteIS3_EEEEPFviEiEEENS4_IS9_EEE5firstEv>
100003864: e8 03 00 aa 	mov	x8, x0
100003868: e0 07 40 f9 	ldr	x0, [sp, #8]
10000386c: 08 01 40 f9 	ldr	x8, [x8]
100003870: e8 0f 00 f9 	str	x8, [sp, #24]
100003874: a8 03 5f f8 	ldur	x8, [x29, #-16]
100003878: e8 0b 00 f9 	str	x8, [sp, #16]
10000387c: d8 ff ff 97 	bl	0x1000037dc <__ZNSt3__117__compressed_pairIPNS_5tupleIJNS_10unique_ptrINS_15__thread_structENS_14default_deleteIS3_EEEEPFviEiEEENS4_IS9_EEE5firstEv>
100003880: e8 0b 40 f9 	ldr	x8, [sp, #16]
100003884: 08 00 00 f9 	str	x8, [x0]
100003888: e8 0f 40 f9 	ldr	x8, [sp, #24]
10000388c: e8 00 00 b4 	cbz	x8, 0x1000038a8 <__ZNSt3__110unique_ptrINS_5tupleIJNS0_INS_15__thread_structENS_14default_deleteIS2_EEEEPFviEiEEENS3_IS8_EEE5resetEPS8_+0x64>
100003890: 01 00 00 14 	b	0x100003894 <__ZNSt3__110unique_ptrINS_5tupleIJNS0_INS_15__thread_structENS_14default_deleteIS2_EEEEPFviEiEEENS3_IS8_EEE5resetEPS8_+0x50>
100003894: e0 07 40 f9 	ldr	x0, [sp, #8]
100003898: 07 00 00 94 	bl	0x1000038b4 <__ZNSt3__117__compressed_pairIPNS_5tupleIJNS_10unique_ptrINS_15__thread_structENS_14default_deleteIS3_EEEEPFviEiEEENS4_IS9_EEE6secondEv>
10000389c: e1 0f 40 f9 	ldr	x1, [sp, #24]
1000038a0: 0e 00 00 94 	bl	0x1000038d8 <__ZNKSt3__114default_deleteINS_5tupleIJNS_10unique_ptrINS_15__thread_structENS0_IS3_EEEEPFviEiEEEEclEPS8_>
1000038a4: 01 00 00 14 	b	0x1000038a8 <__ZNSt3__110unique_ptrINS_5tupleIJNS0_INS_15__thread_structENS_14default_deleteIS2_EEEEPFviEiEEENS3_IS8_EEE5resetEPS8_+0x64>
1000038a8: fd 7b 43 a9 	ldp	x29, x30, [sp, #48]
1000038ac: ff 03 01 91 	add	sp, sp, #64
1000038b0: c0 03 5f d6 	ret

00000001000038b4 <__ZNSt3__117__compressed_pairIPNS_5tupleIJNS_10unique_ptrINS_15__thread_structENS_14default_deleteIS3_EEEEPFviEiEEENS4_IS9_EEE6secondEv>:
1000038b4: ff 83 00 d1 	sub	sp, sp, #32
1000038b8: fd 7b 01 a9 	stp	x29, x30, [sp, #16]
1000038bc: fd 43 00 91 	add	x29, sp, #16
1000038c0: e0 07 00 f9 	str	x0, [sp, #8]
1000038c4: e0 07 40 f9 	ldr	x0, [sp, #8]
1000038c8: 15 00 00 94 	bl	0x10000391c <__ZNSt3__122__compressed_pair_elemINS_14default_deleteINS_5tupleIJNS_10unique_ptrINS_15__thread_structENS1_IS4_EEEEPFviEiEEEEELi1ELb1EE5__getEv>
1000038cc: fd 7b 41 a9 	ldp	x29, x30, [sp, #16]
1000038d0: ff 83 00 91 	add	sp, sp, #32
1000038d4: c0 03 5f d6 	ret

00000001000038d8 <__ZNKSt3__114default_deleteINS_5tupleIJNS_10unique_ptrINS_15__thread_structENS0_IS3_EEEEPFviEiEEEEclEPS8_>:
1000038d8: ff c3 00 d1 	sub	sp, sp, #48
1000038dc: fd 7b 02 a9 	stp	x29, x30, [sp, #32]
1000038e0: fd 83 00 91 	add	x29, sp, #32
1000038e4: a0 83 1f f8 	stur	x0, [x29, #-8]
1000038e8: e1 0b 00 f9 	str	x1, [sp, #16]
1000038ec: e8 0b 40 f9 	ldr	x8, [sp, #16]
1000038f0: e8 07 00 f9 	str	x8, [sp, #8]
1000038f4: e8 00 00 b4 	cbz	x8, 0x100003910 <__ZNKSt3__114default_deleteINS_5tupleIJNS_10unique_ptrINS_15__thread_structENS0_IS3_EEEEPFviEiEEEEclEPS8_+0x38>
1000038f8: 01 00 00 14 	b	0x1000038fc <__ZNKSt3__114default_deleteINS_5tupleIJNS_10unique_ptrINS_15__thread_structENS0_IS3_EEEEPFviEiEEEEclEPS8_+0x24>
1000038fc: e0 07 40 f9 	ldr	x0, [sp, #8]
100003900: 0c 00 00 94 	bl	0x100003930 <__ZNSt3__15tupleIJNS_10unique_ptrINS_15__thread_structENS_14default_deleteIS2_EEEEPFviEiEED1Ev>
100003904: e0 07 40 f9 	ldr	x0, [sp, #8]
100003908: d8 00 00 94 	bl	0x100003c68 <_strlen+0x100003c68>
10000390c: 01 00 00 14 	b	0x100003910 <__ZNKSt3__114default_deleteINS_5tupleIJNS_10unique_ptrINS_15__thread_structENS0_IS3_EEEEPFviEiEEEEclEPS8_+0x38>
100003910: fd 7b 42 a9 	ldp	x29, x30, [sp, #32]
100003914: ff c3 00 91 	add	sp, sp, #48
100003918: c0 03 5f d6 	ret

000000010000391c <__ZNSt3__122__compressed_pair_elemINS_14default_deleteINS_5tupleIJNS_10unique_ptrINS_15__thread_structENS1_IS4_EEEEPFviEiEEEEELi1ELb1EE5__getEv>:
10000391c: ff 43 00 d1 	sub	sp, sp, #16
100003920: e0 07 00 f9 	str	x0, [sp, #8]
100003924: e0 07 40 f9 	ldr	x0, [sp, #8]
100003928: ff 43 00 91 	add	sp, sp, #16
10000392c: c0 03 5f d6 	ret

0000000100003930 <__ZNSt3__15tupleIJNS_10unique_ptrINS_15__thread_structENS_14default_deleteIS2_EEEEPFviEiEED1Ev>:
100003930: ff 83 00 d1 	sub	sp, sp, #32
100003934: fd 7b 01 a9 	stp	x29, x30, [sp, #16]
100003938: fd 43 00 91 	add	x29, sp, #16
10000393c: e0 07 00 f9 	str	x0, [sp, #8]
100003940: e0 07 40 f9 	ldr	x0, [sp, #8]
100003944: e0 03 00 f9 	str	x0, [sp]
100003948: 05 00 00 94 	bl	0x10000395c <__ZNSt3__15tupleIJNS_10unique_ptrINS_15__thread_structENS_14default_deleteIS2_EEEEPFviEiEED2Ev>
10000394c: e0 03 40 f9 	ldr	x0, [sp]
100003950: fd 7b 41 a9 	ldp	x29, x30, [sp, #16]
100003954: ff 83 00 91 	add	sp, sp, #32
100003958: c0 03 5f d6 	ret

000000010000395c <__ZNSt3__15tupleIJNS_10unique_ptrINS_15__thread_structENS_14default_deleteIS2_EEEEPFviEiEED2Ev>:
10000395c: ff 83 00 d1 	sub	sp, sp, #32
100003960: fd 7b 01 a9 	stp	x29, x30, [sp, #16]
100003964: fd 43 00 91 	add	x29, sp, #16
100003968: e0 07 00 f9 	str	x0, [sp, #8]
10000396c: e0 07 40 f9 	ldr	x0, [sp, #8]
100003970: e0 03 00 f9 	str	x0, [sp]
100003974: 05 00 00 94 	bl	0x100003988 <__ZNSt3__112__tuple_implINS_15__tuple_indicesIJLm0ELm1ELm2EEEEJNS_10unique_ptrINS_15__thread_structENS_14default_deleteIS4_EEEEPFviEiEED1Ev>
100003978: e0 03 40 f9 	ldr	x0, [sp]
10000397c: fd 7b 41 a9 	ldp	x29, x30, [sp, #16]
100003980: ff 83 00 91 	add	sp, sp, #32
100003984: c0 03 5f d6 	ret

0000000100003988 <__ZNSt3__112__tuple_implINS_15__tuple_indicesIJLm0ELm1ELm2EEEEJNS_10unique_ptrINS_15__thread_structENS_14default_deleteIS4_EEEEPFviEiEED1Ev>:
100003988: ff 83 00 d1 	sub	sp, sp, #32
10000398c: fd 7b 01 a9 	stp	x29, x30, [sp, #16]
100003990: fd 43 00 91 	add	x29, sp, #16
100003994: e0 07 00 f9 	str	x0, [sp, #8]
100003998: e0 07 40 f9 	ldr	x0, [sp, #8]
10000399c: e0 03 00 f9 	str	x0, [sp]
1000039a0: 05 00 00 94 	bl	0x1000039b4 <__ZNSt3__112__tuple_implINS_15__tuple_indicesIJLm0ELm1ELm2EEEEJNS_10unique_ptrINS_15__thread_structENS_14default_deleteIS4_EEEEPFviEiEED2Ev>
1000039a4: e0 03 40 f9 	ldr	x0, [sp]
1000039a8: fd 7b 41 a9 	ldp	x29, x30, [sp, #16]
1000039ac: ff 83 00 91 	add	sp, sp, #32
1000039b0: c0 03 5f d6 	ret

00000001000039b4 <__ZNSt3__112__tuple_implINS_15__tuple_indicesIJLm0ELm1ELm2EEEEJNS_10unique_ptrINS_15__thread_structENS_14default_deleteIS4_EEEEPFviEiEED2Ev>:
1000039b4: ff 83 00 d1 	sub	sp, sp, #32
1000039b8: fd 7b 01 a9 	stp	x29, x30, [sp, #16]
1000039bc: fd 43 00 91 	add	x29, sp, #16
1000039c0: e0 07 00 f9 	str	x0, [sp, #8]
1000039c4: e0 07 40 f9 	ldr	x0, [sp, #8]
1000039c8: e0 03 00 f9 	str	x0, [sp]
1000039cc: 05 00 00 94 	bl	0x1000039e0 <__ZNSt3__112__tuple_leafILm0ENS_10unique_ptrINS_15__thread_structENS_14default_deleteIS2_EEEELb0EED2Ev>
1000039d0: e0 03 40 f9 	ldr	x0, [sp]
1000039d4: fd 7b 41 a9 	ldp	x29, x30, [sp, #16]
1000039d8: ff 83 00 91 	add	sp, sp, #32
1000039dc: c0 03 5f d6 	ret

00000001000039e0 <__ZNSt3__112__tuple_leafILm0ENS_10unique_ptrINS_15__thread_structENS_14default_deleteIS2_EEEELb0EED2Ev>:
1000039e0: ff 83 00 d1 	sub	sp, sp, #32
1000039e4: fd 7b 01 a9 	stp	x29, x30, [sp, #16]
1000039e8: fd 43 00 91 	add	x29, sp, #16
1000039ec: e0 07 00 f9 	str	x0, [sp, #8]
1000039f0: e0 07 40 f9 	ldr	x0, [sp, #8]
1000039f4: e0 03 00 f9 	str	x0, [sp]
1000039f8: 27 fd ff 97 	bl	0x100002e94 <__ZNSt3__110unique_ptrINS_15__thread_structENS_14default_deleteIS1_EEED1Ev>
1000039fc: e0 03 40 f9 	ldr	x0, [sp]
100003a00: fd 7b 41 a9 	ldp	x29, x30, [sp, #16]
100003a04: ff 83 00 91 	add	sp, sp, #32
100003a08: c0 03 5f d6 	ret

0000000100003a0c <__ZNSt3__110unique_ptrINS_15__thread_structENS_14default_deleteIS1_EEED2Ev>:
100003a0c: ff 83 00 d1 	sub	sp, sp, #32
100003a10: fd 7b 01 a9 	stp	x29, x30, [sp, #16]
100003a14: fd 43 00 91 	add	x29, sp, #16
100003a18: e0 07 00 f9 	str	x0, [sp, #8]
100003a1c: e0 07 40 f9 	ldr	x0, [sp, #8]
100003a20: e0 03 00 f9 	str	x0, [sp]
100003a24: 01 00 80 d2 	mov	x1, #0
100003a28: 05 00 00 94 	bl	0x100003a3c <__ZNSt3__110unique_ptrINS_15__thread_structENS_14default_deleteIS1_EEE5resetEPS1_>
100003a2c: e0 03 40 f9 	ldr	x0, [sp]
100003a30: fd 7b 41 a9 	ldp	x29, x30, [sp, #16]
100003a34: ff 83 00 91 	add	sp, sp, #32
100003a38: c0 03 5f d6 	ret

0000000100003a3c <__ZNSt3__110unique_ptrINS_15__thread_structENS_14default_deleteIS1_EEE5resetEPS1_>:
100003a3c: ff 03 01 d1 	sub	sp, sp, #64
100003a40: fd 7b 03 a9 	stp	x29, x30, [sp, #48]
100003a44: fd c3 00 91 	add	x29, sp, #48
100003a48: a0 83 1f f8 	stur	x0, [x29, #-8]
100003a4c: a1 03 1f f8 	stur	x1, [x29, #-16]
100003a50: a0 83 5f f8 	ldur	x0, [x29, #-8]
100003a54: e0 07 00 f9 	str	x0, [sp, #8]
100003a58: 45 fe ff 97 	bl	0x10000336c <__ZNSt3__117__compressed_pairIPNS_15__thread_structENS_14default_deleteIS1_EEE5firstEv>
100003a5c: e8 03 00 aa 	mov	x8, x0
100003a60: e0 07 40 f9 	ldr	x0, [sp, #8]
100003a64: 08 01 40 f9 	ldr	x8, [x8]
100003a68: e8 0f 00 f9 	str	x8, [sp, #24]
100003a6c: a8 03 5f f8 	ldur	x8, [x29, #-16]
100003a70: e8 0b 00 f9 	str	x8, [sp, #16]
100003a74: 3e fe ff 97 	bl	0x10000336c <__ZNSt3__117__compressed_pairIPNS_15__thread_structENS_14default_deleteIS1_EEE5firstEv>
100003a78: e8 0b 40 f9 	ldr	x8, [sp, #16]
100003a7c: 08 00 00 f9 	str	x8, [x0]
100003a80: e8 0f 40 f9 	ldr	x8, [sp, #24]
100003a84: e8 00 00 b4 	cbz	x8, 0x100003aa0 <__ZNSt3__110unique_ptrINS_15__thread_structENS_14default_deleteIS1_EEE5resetEPS1_+0x64>
100003a88: 01 00 00 14 	b	0x100003a8c <__ZNSt3__110unique_ptrINS_15__thread_structENS_14default_deleteIS1_EEE5resetEPS1_+0x50>
100003a8c: e0 07 40 f9 	ldr	x0, [sp, #8]
100003a90: 45 fe ff 97 	bl	0x1000033a4 <__ZNSt3__117__compressed_pairIPNS_15__thread_structENS_14default_deleteIS1_EEE6secondEv>
100003a94: e1 0f 40 f9 	ldr	x1, [sp, #24]
100003a98: 05 00 00 94 	bl	0x100003aac <__ZNKSt3__114default_deleteINS_15__thread_structEEclEPS1_>
100003a9c: 01 00 00 14 	b	0x100003aa0 <__ZNSt3__110unique_ptrINS_15__thread_structENS_14default_deleteIS1_EEE5resetEPS1_+0x64>
100003aa0: fd 7b 43 a9 	ldp	x29, x30, [sp, #48]
100003aa4: ff 03 01 91 	add	sp, sp, #64
100003aa8: c0 03 5f d6 	ret

0000000100003aac <__ZNKSt3__114default_deleteINS_15__thread_structEEclEPS1_>:
100003aac: ff c3 00 d1 	sub	sp, sp, #48
100003ab0: fd 7b 02 a9 	stp	x29, x30, [sp, #32]
100003ab4: fd 83 00 91 	add	x29, sp, #32
100003ab8: a0 83 1f f8 	stur	x0, [x29, #-8]
100003abc: e1 0b 00 f9 	str	x1, [sp, #16]
100003ac0: e8 0b 40 f9 	ldr	x8, [sp, #16]
100003ac4: e8 07 00 f9 	str	x8, [sp, #8]
100003ac8: e8 00 00 b4 	cbz	x8, 0x100003ae4 <__ZNKSt3__114default_deleteINS_15__thread_structEEclEPS1_+0x38>
100003acc: 01 00 00 14 	b	0x100003ad0 <__ZNKSt3__114default_deleteINS_15__thread_structEEclEPS1_+0x24>
100003ad0: e0 07 40 f9 	ldr	x0, [sp, #8]
100003ad4: 3b 00 00 94 	bl	0x100003bc0 <_strlen+0x100003bc0>
100003ad8: e0 07 40 f9 	ldr	x0, [sp, #8]
100003adc: 63 00 00 94 	bl	0x100003c68 <_strlen+0x100003c68>
100003ae0: 01 00 00 14 	b	0x100003ae4 <__ZNKSt3__114default_deleteINS_15__thread_structEEclEPS1_+0x38>
100003ae4: fd 7b 42 a9 	ldp	x29, x30, [sp, #32]
100003ae8: ff c3 00 91 	add	sp, sp, #48
100003aec: c0 03 5f d6 	ret

0000000100003af0 <___cxx_global_var_init>:
100003af0: fd 7b bf a9 	stp	x29, x30, [sp, #-16]!
100003af4: fd 03 00 91 	mov	x29, sp
100003af8: 00 00 00 b0 	adrp	x0, 0x100004000 <___cxx_global_var_init+0xc>
100003afc: 00 54 40 f9 	ldr	x0, [x0, #168]
100003b00: 21 00 00 b0 	adrp	x1, 0x100008000 <___cxx_global_var_init+0x24>
100003b04: 21 00 00 91 	add	x1, x1, #0
100003b08: e2 ff ff b0 	adrp	x2, 0x100000000 <___cxx_global_var_init+0xc>
100003b0c: 42 00 00 91 	add	x2, x2, #0
100003b10: 5c 00 00 94 	bl	0x100003c80 <_strlen+0x100003c80>
100003b14: fd 7b c1 a8 	ldp	x29, x30, [sp], #16
100003b18: c0 03 5f d6 	ret

0000000100003b1c <__GLOBAL__sub_I_thread_safe_stack.cpp>:
100003b1c: fd 7b bf a9 	stp	x29, x30, [sp, #-16]!
100003b20: fd 03 00 91 	mov	x29, sp
100003b24: f3 ff ff 97 	bl	0x100003af0 <___cxx_global_var_init>
100003b28: fd 7b c1 a8 	ldp	x29, x30, [sp], #16
100003b2c: c0 03 5f d6 	ret

Disassembly of section __TEXT,__stubs:

0000000100003b30 <__stubs>:
100003b30: 10 00 00 b0 	adrp	x16, 0x100004000 <__stubs+0x4>
100003b34: 10 02 40 f9 	ldr	x16, [x16]
100003b38: 00 02 1f d6 	br	x16
100003b3c: 10 00 00 b0 	adrp	x16, 0x100004000 <__stubs+0x10>
100003b40: 10 06 40 f9 	ldr	x16, [x16, #8]
100003b44: 00 02 1f d6 	br	x16
100003b48: 10 00 00 b0 	adrp	x16, 0x100004000 <__stubs+0x1c>
100003b4c: 10 0a 40 f9 	ldr	x16, [x16, #16]
100003b50: 00 02 1f d6 	br	x16
100003b54: 10 00 00 b0 	adrp	x16, 0x100004000 <__stubs+0x28>
100003b58: 10 0e 40 f9 	ldr	x16, [x16, #24]
100003b5c: 00 02 1f d6 	br	x16
100003b60: 10 00 00 b0 	adrp	x16, 0x100004000 <__stubs+0x34>
100003b64: 10 12 40 f9 	ldr	x16, [x16, #32]
100003b68: 00 02 1f d6 	br	x16
100003b6c: 10 00 00 b0 	adrp	x16, 0x100004000 <__stubs+0x40>
100003b70: 10 16 40 f9 	ldr	x16, [x16, #40]
100003b74: 00 02 1f d6 	br	x16
100003b78: 10 00 00 b0 	adrp	x16, 0x100004000 <__stubs+0x4c>
100003b7c: 10 1a 40 f9 	ldr	x16, [x16, #48]
100003b80: 00 02 1f d6 	br	x16
100003b84: 10 00 00 b0 	adrp	x16, 0x100004000 <__stubs+0x58>
100003b88: 10 1e 40 f9 	ldr	x16, [x16, #56]
100003b8c: 00 02 1f d6 	br	x16
100003b90: 10 00 00 b0 	adrp	x16, 0x100004000 <__stubs+0x64>
100003b94: 10 22 40 f9 	ldr	x16, [x16, #64]
100003b98: 00 02 1f d6 	br	x16
100003b9c: 10 00 00 b0 	adrp	x16, 0x100004000 <__stubs+0x70>
100003ba0: 10 26 40 f9 	ldr	x16, [x16, #72]
100003ba4: 00 02 1f d6 	br	x16
100003ba8: 10 00 00 b0 	adrp	x16, 0x100004000 <__stubs+0x7c>
100003bac: 10 2a 40 f9 	ldr	x16, [x16, #80]
100003bb0: 00 02 1f d6 	br	x16
100003bb4: 10 00 00 b0 	adrp	x16, 0x100004000 <__stubs+0x88>
100003bb8: 10 2e 40 f9 	ldr	x16, [x16, #88]
100003bbc: 00 02 1f d6 	br	x16
100003bc0: 10 00 00 b0 	adrp	x16, 0x100004000 <__stubs+0x94>
100003bc4: 10 32 40 f9 	ldr	x16, [x16, #96]
100003bc8: 00 02 1f d6 	br	x16
100003bcc: 10 00 00 b0 	adrp	x16, 0x100004000 <__stubs+0xa0>
100003bd0: 10 36 40 f9 	ldr	x16, [x16, #104]
100003bd4: 00 02 1f d6 	br	x16
100003bd8: 10 00 00 b0 	adrp	x16, 0x100004000 <__stubs+0xac>
100003bdc: 10 3a 40 f9 	ldr	x16, [x16, #112]
100003be0: 00 02 1f d6 	br	x16
100003be4: 10 00 00 b0 	adrp	x16, 0x100004000 <__stubs+0xb8>
100003be8: 10 3e 40 f9 	ldr	x16, [x16, #120]
100003bec: 00 02 1f d6 	br	x16
100003bf0: 10 00 00 b0 	adrp	x16, 0x100004000 <__stubs+0xc4>
100003bf4: 10 42 40 f9 	ldr	x16, [x16, #128]
100003bf8: 00 02 1f d6 	br	x16
100003bfc: 10 00 00 b0 	adrp	x16, 0x100004000 <__stubs+0xd0>
100003c00: 10 4e 40 f9 	ldr	x16, [x16, #152]
100003c04: 00 02 1f d6 	br	x16
100003c08: 10 00 00 b0 	adrp	x16, 0x100004000 <__stubs+0xdc>
100003c0c: 10 52 40 f9 	ldr	x16, [x16, #160]
100003c10: 00 02 1f d6 	br	x16
100003c14: 10 00 00 b0 	adrp	x16, 0x100004000 <__stubs+0xe8>
100003c18: 10 5a 40 f9 	ldr	x16, [x16, #176]
100003c1c: 00 02 1f d6 	br	x16
100003c20: 10 00 00 b0 	adrp	x16, 0x100004000 <__stubs+0xf4>
100003c24: 10 5e 40 f9 	ldr	x16, [x16, #184]
100003c28: 00 02 1f d6 	br	x16
100003c2c: 10 00 00 b0 	adrp	x16, 0x100004000 <__stubs+0x100>
100003c30: 10 62 40 f9 	ldr	x16, [x16, #192]
100003c34: 00 02 1f d6 	br	x16
100003c38: 10 00 00 b0 	adrp	x16, 0x100004000 <__stubs+0x10c>
100003c3c: 10 66 40 f9 	ldr	x16, [x16, #200]
100003c40: 00 02 1f d6 	br	x16
100003c44: 10 00 00 b0 	adrp	x16, 0x100004000 <__stubs+0x118>
100003c48: 10 6a 40 f9 	ldr	x16, [x16, #208]
100003c4c: 00 02 1f d6 	br	x16
100003c50: 10 00 00 b0 	adrp	x16, 0x100004000 <__stubs+0x124>
100003c54: 10 6e 40 f9 	ldr	x16, [x16, #216]
100003c58: 00 02 1f d6 	br	x16
100003c5c: 10 00 00 b0 	adrp	x16, 0x100004000 <__stubs+0x130>
100003c60: 10 72 40 f9 	ldr	x16, [x16, #224]
100003c64: 00 02 1f d6 	br	x16
100003c68: 10 00 00 b0 	adrp	x16, 0x100004000 <__stubs+0x13c>
100003c6c: 10 76 40 f9 	ldr	x16, [x16, #232]
100003c70: 00 02 1f d6 	br	x16
100003c74: 10 00 00 b0 	adrp	x16, 0x100004000 <__stubs+0x148>
100003c78: 10 7a 40 f9 	ldr	x16, [x16, #240]
100003c7c: 00 02 1f d6 	br	x16
100003c80: 10 00 00 b0 	adrp	x16, 0x100004000 <__stubs+0x154>
100003c84: 10 82 40 f9 	ldr	x16, [x16, #256]
100003c88: 00 02 1f d6 	br	x16
100003c8c: 10 00 00 b0 	adrp	x16, 0x100004000 <__stubs+0x160>
100003c90: 10 86 40 f9 	ldr	x16, [x16, #264]
100003c94: 00 02 1f d6 	br	x16
100003c98: 10 00 00 b0 	adrp	x16, 0x100004000 <__stubs+0x16c>
100003c9c: 10 8a 40 f9 	ldr	x16, [x16, #272]
100003ca0: 00 02 1f d6 	br	x16
100003ca4: 10 00 00 b0 	adrp	x16, 0x100004000 <__stubs+0x178>
100003ca8: 10 92 40 f9 	ldr	x16, [x16, #288]
100003cac: 00 02 1f d6 	br	x16
100003cb0: 10 00 00 b0 	adrp	x16, 0x100004000 <__stubs+0x184>
100003cb4: 10 9a 40 f9 	ldr	x16, [x16, #304]
100003cb8: 00 02 1f d6 	br	x16
100003cbc: 10 00 00 b0 	adrp	x16, 0x100004000 <__stubs+0x190>
100003cc0: 10 9e 40 f9 	ldr	x16, [x16, #312]
100003cc4: 00 02 1f d6 	br	x16
100003cc8: 10 00 00 b0 	adrp	x16, 0x100004000 <__stubs+0x19c>
100003ccc: 10 a2 40 f9 	ldr	x16, [x16, #320]
100003cd0: 00 02 1f d6 	br	x16
